---
triple:          'arm64-apple-darwin'
binary-path:     d
relocations:
  - { offsetInCU: 0x9B, offset: 0x9B, size: 0x8, addend: 0x0, symName: __ZnwmPv, symObjAddr: 0x0, symBinAddr: 0x1000038E0, symSize: 0x18 }
  - { offsetInCU: 0xA3, offset: 0xA3, size: 0x8, addend: 0x0, symName: __ZSt19piecewise_construct, symObjAddr: 0x23E0, symBinAddr: 0x100006360, symSize: 0x0 }
  - { offsetInCU: 0x18F3, offset: 0x18F3, size: 0x8, addend: 0x0, symName: __ZSt19piecewise_construct, symObjAddr: 0x23E0, symBinAddr: 0x100006360, symSize: 0x0 }
  - { offsetInCU: 0x1BE21, offset: 0x1BE21, size: 0x8, addend: 0x0, symName: __ZStL8__ioinit, symObjAddr: 0x7C5F8, symBinAddr: 0x10000C098, symSize: 0x0 }
  - { offsetInCU: 0x2395C, offset: 0x2395C, size: 0x8, addend: 0x0, symName: __ZNSt8__detail30__integer_to_chars_is_unsignedIjEE, symObjAddr: 0x23E1, symBinAddr: 0x100006361, symSize: 0x0 }
  - { offsetInCU: 0x23976, offset: 0x23976, size: 0x8, addend: 0x0, symName: __ZNSt8__detail30__integer_to_chars_is_unsignedImEE, symObjAddr: 0x23E2, symBinAddr: 0x100006362, symSize: 0x0 }
  - { offsetInCU: 0x23990, offset: 0x23990, size: 0x8, addend: 0x0, symName: __ZNSt8__detail30__integer_to_chars_is_unsignedIyEE, symObjAddr: 0x23E3, symBinAddr: 0x100006363, symSize: 0x0 }
  - { offsetInCU: 0x23ABB, offset: 0x23ABB, size: 0x8, addend: 0x0, symName: __ZNSt8__detail30__integer_to_chars_is_unsignedIoEE, symObjAddr: 0x23E4, symBinAddr: 0x100006364, symSize: 0x0 }
  - { offsetInCU: 0x23B28, offset: 0x23B28, size: 0x8, addend: 0x0, symName: __GLOBAL__sub_I_d.cpp, symObjAddr: 0x23CC, symBinAddr: 0x100005CAC, symSize: 0x14 }
  - { offsetInCU: 0x23B30, offset: 0x23B30, size: 0x8, addend: 0x0, symName: __ZSt19piecewise_construct, symObjAddr: 0x23E0, symBinAddr: 0x100006360, symSize: 0x0 }
  - { offsetInCU: 0x23B57, offset: 0x23B57, size: 0x8, addend: 0x0, symName: __Z41__static_initialization_and_destruction_0v, symObjAddr: 0x2390, symBinAddr: 0x100005C70, symSize: 0x3C }
  - { offsetInCU: 0x23B5F, offset: 0x23B5F, size: 0x8, addend: 0x0, symName: __GLOBAL__sub_I_d.cpp, symObjAddr: 0x23CC, symBinAddr: 0x100005CAC, symSize: 0x14 }
  - { offsetInCU: 0x23B49, offset: 0x23B49, size: 0x8, addend: 0x0, symName: __ZNSt10_Head_baseILm0EOxLb0EE7_M_headERS1_, symObjAddr: 0x2378, symBinAddr: 0x100005C58, symSize: 0x18 }
  - { offsetInCU: 0x23B51, offset: 0x23B51, size: 0x8, addend: 0x0, symName: __Z41__static_initialization_and_destruction_0v, symObjAddr: 0x2390, symBinAddr: 0x100005C70, symSize: 0x3C }
  - { offsetInCU: 0x23B7A, offset: 0x23B7A, size: 0x8, addend: 0x0, symName: __ZNSt10_Head_baseILm0ERKxLb0EE7_M_headERS2_, symObjAddr: 0x2360, symBinAddr: 0x100005C40, symSize: 0x18 }
  - { offsetInCU: 0x23B82, offset: 0x23B82, size: 0x8, addend: 0x0, symName: __ZNSt10_Head_baseILm0EOxLb0EE7_M_headERS1_, symObjAddr: 0x2378, symBinAddr: 0x100005C58, symSize: 0x18 }
  - { offsetInCU: 0x23BAB, offset: 0x23BAB, size: 0x8, addend: 0x0, symName: __ZNSt11_Tuple_implILm0EJOxEE7_M_headERS1_, symObjAddr: 0x2344, symBinAddr: 0x100005C24, symSize: 0x1C }
  - { offsetInCU: 0x23BB3, offset: 0x23BB3, size: 0x8, addend: 0x0, symName: __ZNSt10_Head_baseILm0ERKxLb0EE7_M_headERS2_, symObjAddr: 0x2360, symBinAddr: 0x100005C40, symSize: 0x18 }
  - { offsetInCU: 0x23BDD, offset: 0x23BDD, size: 0x8, addend: 0x0, symName: __ZNSt11_Tuple_implILm0EJRKxEE7_M_headERS2_, symObjAddr: 0x2328, symBinAddr: 0x100005C08, symSize: 0x1C }
  - { offsetInCU: 0x23BE5, offset: 0x23BE5, size: 0x8, addend: 0x0, symName: __ZNSt11_Tuple_implILm0EJOxEE7_M_headERS1_, symObjAddr: 0x2344, symBinAddr: 0x100005C24, symSize: 0x1C }
  - { offsetInCU: 0x23C76, offset: 0x23C76, size: 0x8, addend: 0x0, symName: __ZSt12__get_helperILm0EOxJEERT0_RSt11_Tuple_implIXT_EJS1_DpT1_EE, symObjAddr: 0x230C, symBinAddr: 0x100005BEC, symSize: 0x1C }
  - { offsetInCU: 0x23C7E, offset: 0x23C7E, size: 0x8, addend: 0x0, symName: __ZNSt11_Tuple_implILm0EJRKxEE7_M_headERS2_, symObjAddr: 0x2328, symBinAddr: 0x100005C08, symSize: 0x1C }
  - { offsetInCU: 0x23CDB, offset: 0x23CDB, size: 0x8, addend: 0x0, symName: __ZSt12__get_helperILm0ERKxJEERT0_RSt11_Tuple_implIXT_EJS2_DpT1_EE, symObjAddr: 0x22F0, symBinAddr: 0x100005BD0, symSize: 0x1C }
  - { offsetInCU: 0x23CE3, offset: 0x23CE3, size: 0x8, addend: 0x0, symName: __ZSt12__get_helperILm0EOxJEERT0_RSt11_Tuple_implIXT_EJS1_DpT1_EE, symObjAddr: 0x230C, symBinAddr: 0x100005BEC, symSize: 0x1C }
  - { offsetInCU: 0x23D1F, offset: 0x23D1F, size: 0x8, addend: 0x0, symName: __ZSt7forwardIOxEOT_RNSt16remove_referenceIS1_E4typeE, symObjAddr: 0x22DC, symBinAddr: 0x100005BBC, symSize: 0x14 }
  - { offsetInCU: 0x23D27, offset: 0x23D27, size: 0x8, addend: 0x0, symName: __ZSt12__get_helperILm0ERKxJEERT0_RSt11_Tuple_implIXT_EJS2_DpT1_EE, symObjAddr: 0x22F0, symBinAddr: 0x100005BD0, symSize: 0x1C }
  - { offsetInCU: 0x23D85, offset: 0x23D85, size: 0x8, addend: 0x0, symName: __ZSt3getILm0EJOxEERNSt13tuple_elementIXT_ESt5tupleIJDpT0_EEE4typeERS5_, symObjAddr: 0x22C0, symBinAddr: 0x100005BA0, symSize: 0x1C }
  - { offsetInCU: 0x23D8D, offset: 0x23D8D, size: 0x8, addend: 0x0, symName: __ZSt7forwardIOxEOT_RNSt16remove_referenceIS1_E4typeE, symObjAddr: 0x22DC, symBinAddr: 0x100005BBC, symSize: 0x14 }
  - { offsetInCU: 0x23DD5, offset: 0x23DD5, size: 0x8, addend: 0x0, symName: __ZSt7forwardIRKxEOT_RNSt16remove_referenceIS2_E4typeE, symObjAddr: 0x22AC, symBinAddr: 0x100005B8C, symSize: 0x14 }
  - { offsetInCU: 0x23DDD, offset: 0x23DDD, size: 0x8, addend: 0x0, symName: __ZSt3getILm0EJOxEERNSt13tuple_elementIXT_ESt5tupleIJDpT0_EEE4typeERS5_, symObjAddr: 0x22C0, symBinAddr: 0x100005BA0, symSize: 0x1C }
  - { offsetInCU: 0x23E3B, offset: 0x23E3B, size: 0x8, addend: 0x0, symName: __ZSt3getILm0EJRKxEERNSt13tuple_elementIXT_ESt5tupleIJDpT0_EEE4typeERS6_, symObjAddr: 0x2290, symBinAddr: 0x100005B70, symSize: 0x1C }
  - { offsetInCU: 0x23E43, offset: 0x23E43, size: 0x8, addend: 0x0, symName: __ZSt7forwardIRKxEOT_RNSt16remove_referenceIS2_E4typeE, symObjAddr: 0x22AC, symBinAddr: 0x100005B8C, symSize: 0x14 }
  - { offsetInCU: 0x23F13, offset: 0x23F13, size: 0x8, addend: 0x0, symName: __ZNSt4pairIKxxEC1IJOxEJLm0EEJEJEEERSt5tupleIJDpT_EERS4_IJDpT1_EESt12_Index_tupleIJXspT0_EEESD_IJXspT2_EEE, symObjAddr: 0x2248, symBinAddr: 0x100005B28, symSize: 0x48 }
  - { offsetInCU: 0x23F1B, offset: 0x23F1B, size: 0x8, addend: 0x0, symName: __ZSt3getILm0EJRKxEERNSt13tuple_elementIXT_ESt5tupleIJDpT0_EEE4typeERS6_, symObjAddr: 0x2290, symBinAddr: 0x100005B70, symSize: 0x1C }
  - { offsetInCU: 0x2401E, offset: 0x2401E, size: 0x8, addend: 0x0, symName: __ZNSt4pairIKxxEC1IJRS0_EJLm0EEJEJEEERSt5tupleIJDpT_EERS4_IJDpT1_EESt12_Index_tupleIJXspT0_EEESD_IJXspT2_EEE, symObjAddr: 0x2200, symBinAddr: 0x100005AE0, symSize: 0x48 }
  - { offsetInCU: 0x24026, offset: 0x24026, size: 0x8, addend: 0x0, symName: __ZNSt4pairIKxxEC1IJOxEJLm0EEJEJEEERSt5tupleIJDpT_EERS4_IJDpT1_EESt12_Index_tupleIJXspT0_EEESD_IJXspT2_EEE, symObjAddr: 0x2248, symBinAddr: 0x100005B28, symSize: 0x48 }
  - { offsetInCU: 0x240E7, offset: 0x240E7, size: 0x8, addend: 0x0, symName: __ZNSt4pairIKxxEC1IJOxEJEEESt21piecewise_construct_tSt5tupleIJDpT_EES5_IJDpT0_EE, symObjAddr: 0x21C4, symBinAddr: 0x100005AA4, symSize: 0x3C }
  - { offsetInCU: 0x240EF, offset: 0x240EF, size: 0x8, addend: 0x0, symName: __ZNSt4pairIKxxEC1IJRS0_EJLm0EEJEJEEERSt5tupleIJDpT_EERS4_IJDpT1_EESt12_Index_tupleIJXspT0_EEESD_IJXspT2_EEE, symObjAddr: 0x2200, symBinAddr: 0x100005AE0, symSize: 0x48 }
  - { offsetInCU: 0x2414C, offset: 0x2414C, size: 0x8, addend: 0x0, symName: __ZNSt11_Tuple_implILm0EJOxEEC2EOS1_, symObjAddr: 0x219C, symBinAddr: 0x100005A7C, symSize: 0x28 }
  - { offsetInCU: 0x24154, offset: 0x24154, size: 0x8, addend: 0x0, symName: __ZNSt4pairIKxxEC1IJOxEJEEESt21piecewise_construct_tSt5tupleIJDpT_EES5_IJDpT0_EE, symObjAddr: 0x21C4, symBinAddr: 0x100005AA4, symSize: 0x3C }
  - { offsetInCU: 0x2420C, offset: 0x2420C, size: 0x8, addend: 0x0, symName: __ZNSt4pairIKxxEC1IJRS0_EJEEESt21piecewise_construct_tSt5tupleIJDpT_EES5_IJDpT0_EE, symObjAddr: 0x2160, symBinAddr: 0x100005A40, symSize: 0x3C }
  - { offsetInCU: 0x24214, offset: 0x24214, size: 0x8, addend: 0x0, symName: __ZNSt11_Tuple_implILm0EJOxEEC2EOS1_, symObjAddr: 0x219C, symBinAddr: 0x100005A7C, symSize: 0x28 }
  - { offsetInCU: 0x24270, offset: 0x24270, size: 0x8, addend: 0x0, symName: __ZNSt11_Tuple_implILm0EJRKxEEC2EOS2_, symObjAddr: 0x2138, symBinAddr: 0x100005A18, symSize: 0x28 }
  - { offsetInCU: 0x24278, offset: 0x24278, size: 0x8, addend: 0x0, symName: __ZNSt4pairIKxxEC1IJRS0_EJEEESt21piecewise_construct_tSt5tupleIJDpT_EES5_IJDpT0_EE, symObjAddr: 0x2160, symBinAddr: 0x100005A40, symSize: 0x3C }
  - { offsetInCU: 0x24364, offset: 0x24364, size: 0x8, addend: 0x0, symName: __ZNSt5tupleIJOxEEC1EOS1_, symObjAddr: 0x2110, symBinAddr: 0x1000059F0, symSize: 0x28 }
  - { offsetInCU: 0x2436C, offset: 0x2436C, size: 0x8, addend: 0x0, symName: __ZNSt11_Tuple_implILm0EJRKxEEC2EOS2_, symObjAddr: 0x2138, symBinAddr: 0x100005A18, symSize: 0x28 }
  - { offsetInCU: 0x2438A, offset: 0x2438A, size: 0x8, addend: 0x0, symName: __ZNK9__gnu_cxx16__aligned_membufISt4pairIKxxEE7_M_addrEv, symObjAddr: 0x20FC, symBinAddr: 0x1000059DC, symSize: 0x14 }
  - { offsetInCU: 0x24392, offset: 0x24392, size: 0x8, addend: 0x0, symName: __ZNSt5tupleIJOxEEC1EOS1_, symObjAddr: 0x2110, symBinAddr: 0x1000059F0, symSize: 0x28 }
  - { offsetInCU: 0x2446F, offset: 0x2446F, size: 0x8, addend: 0x0, symName: __ZNSt5tupleIJRKxEEC1EOS2_, symObjAddr: 0x20D4, symBinAddr: 0x1000059B4, symSize: 0x28 }
  - { offsetInCU: 0x24477, offset: 0x24477, size: 0x8, addend: 0x0, symName: __ZNK9__gnu_cxx16__aligned_membufISt4pairIKxxEE7_M_addrEv, symObjAddr: 0x20FC, symBinAddr: 0x1000059DC, symSize: 0x14 }
  - { offsetInCU: 0x2448F, offset: 0x2448F, size: 0x8, addend: 0x0, symName: __ZNSt15__new_allocatorISt13_Rb_tree_nodeISt4pairIKxxEEE8allocateEmPKv, symObjAddr: 0x2044, symBinAddr: 0x100005924, symSize: 0x90 }
  - { offsetInCU: 0x24497, offset: 0x24497, size: 0x8, addend: 0x0, symName: __ZNSt5tupleIJRKxEEC1EOS2_, symObjAddr: 0x20D4, symBinAddr: 0x1000059B4, symSize: 0x28 }
  - { offsetInCU: 0x24596, offset: 0x24596, size: 0x8, addend: 0x0, symName: __ZNK9__gnu_cxx16__aligned_membufISt4pairIKxxEE6_M_ptrEv, symObjAddr: 0x2028, symBinAddr: 0x100005908, symSize: 0x1C }
  - { offsetInCU: 0x2459E, offset: 0x2459E, size: 0x8, addend: 0x0, symName: __ZNSt15__new_allocatorISt13_Rb_tree_nodeISt4pairIKxxEEE8allocateEmPKv, symObjAddr: 0x2044, symBinAddr: 0x100005924, symSize: 0x90 }
  - { offsetInCU: 0x2466B, offset: 0x2466B, size: 0x8, addend: 0x0, symName: __ZSt7forwardIRPSt13_Rb_tree_nodeISt4pairIKxxEEEOT_RNSt16remove_referenceIS7_E4typeE, symObjAddr: 0x2014, symBinAddr: 0x1000058F4, symSize: 0x14 }
  - { offsetInCU: 0x24673, offset: 0x24673, size: 0x8, addend: 0x0, symName: __ZNK9__gnu_cxx16__aligned_membufISt4pairIKxxEE6_M_ptrEv, symObjAddr: 0x2028, symBinAddr: 0x100005908, symSize: 0x1C }
  - { offsetInCU: 0x246CD, offset: 0x246CD, size: 0x8, addend: 0x0, symName: __ZNSt15__new_allocatorISt13_Rb_tree_nodeISt4pairIKxxEEE10deallocateEPS4_m, symObjAddr: 0x1FD8, symBinAddr: 0x1000058B8, symSize: 0x3C }
  - { offsetInCU: 0x246D5, offset: 0x246D5, size: 0x8, addend: 0x0, symName: __ZSt7forwardIRPSt13_Rb_tree_nodeISt4pairIKxxEEEOT_RNSt16remove_referenceIS7_E4typeE, symObjAddr: 0x2014, symBinAddr: 0x1000058F4, symSize: 0x14 }
  - { offsetInCU: 0x24758, offset: 0x24758, size: 0x8, addend: 0x0, symName: __ZNSt8_Rb_treeIxSt4pairIKxxESt10_Select1stIS2_ESt4lessIxESaIS2_EE17_M_construct_nodeIJRKSt21piecewise_construct_tSt5tupleIJOxEESD_IJEEEEEvPSt13_Rb_tree_nodeIS2_EDpOT_, symObjAddr: 0x1E5C, symBinAddr: 0x10000573C, symSize: 0x17C }
  - { offsetInCU: 0x24760, offset: 0x24760, size: 0x8, addend: 0x0, symName: __ZNSt15__new_allocatorISt13_Rb_tree_nodeISt4pairIKxxEEE10deallocateEPS4_m, symObjAddr: 0x1FD8, symBinAddr: 0x1000058B8, symSize: 0x3C }
  - { offsetInCU: 0x248FC, offset: 0x248FC, size: 0x8, addend: 0x0, symName: __ZNSt10_Head_baseILm0EOxLb0EEC2IxEEOT_, symObjAddr: 0x1E2C, symBinAddr: 0x10000570C, symSize: 0x30 }
  - { offsetInCU: 0x24904, offset: 0x24904, size: 0x8, addend: 0x0, symName: __ZNSt8_Rb_treeIxSt4pairIKxxESt10_Select1stIS2_ESt4lessIxESaIS2_EE17_M_construct_nodeIJRKSt21piecewise_construct_tSt5tupleIJOxEESD_IJEEEEEvPSt13_Rb_tree_nodeIS2_EDpOT_, symObjAddr: 0x1E5C, symBinAddr: 0x10000573C, symSize: 0x17C }
  - { offsetInCU: 0x2491C, offset: 0x2491C, size: 0x8, addend: 0x0, symName: __ZNKSt10_Select1stISt4pairIKxxEEclERKS2_, symObjAddr: 0x1E14, symBinAddr: 0x1000056F4, symSize: 0x18 }
  - { offsetInCU: 0x24924, offset: 0x24924, size: 0x8, addend: 0x0, symName: __ZNSt10_Head_baseILm0EOxLb0EEC2IxEEOT_, symObjAddr: 0x1E2C, symBinAddr: 0x10000570C, symSize: 0x30 }
  - { offsetInCU: 0x2495F, offset: 0x2495F, size: 0x8, addend: 0x0, symName: __ZNKSt13_Rb_tree_nodeISt4pairIKxxEE9_M_valptrEv, symObjAddr: 0x1DF4, symBinAddr: 0x1000056D4, symSize: 0x20 }
  - { offsetInCU: 0x24967, offset: 0x24967, size: 0x8, addend: 0x0, symName: __ZNKSt10_Select1stISt4pairIKxxEEclERKS2_, symObjAddr: 0x1E14, symBinAddr: 0x1000056F4, symSize: 0x18 }
  - { offsetInCU: 0x24A00, offset: 0x24A00, size: 0x8, addend: 0x0, symName: __ZSt7forwardIRPSt18_Rb_tree_node_baseEOT_RNSt16remove_referenceIS3_E4typeE, symObjAddr: 0x1DE0, symBinAddr: 0x1000056C0, symSize: 0x14 }
  - { offsetInCU: 0x24A08, offset: 0x24A08, size: 0x8, addend: 0x0, symName: __ZNKSt13_Rb_tree_nodeISt4pairIKxxEE9_M_valptrEv, symObjAddr: 0x1DF4, symBinAddr: 0x1000056D4, symSize: 0x20 }
  - { offsetInCU: 0x24A8E, offset: 0x24A8E, size: 0x8, addend: 0x0, symName: __ZNSt4pairIPSt18_Rb_tree_node_baseS1_EC1IRPSt13_Rb_tree_nodeIS_IKxxEERS1_Lb1EEEOT_OT0_, symObjAddr: 0x1D98, symBinAddr: 0x100005678, symSize: 0x48 }
  - { offsetInCU: 0x24A96, offset: 0x24A96, size: 0x8, addend: 0x0, symName: __ZSt7forwardIRPSt18_Rb_tree_node_baseEOT_RNSt16remove_referenceIS3_E4typeE, symObjAddr: 0x1DE0, symBinAddr: 0x1000056C0, symSize: 0x14 }
  - { offsetInCU: 0x24A97, offset: 0x24A97, size: 0x8, addend: 0x0, symName: __ZNSt8_Rb_treeIxSt4pairIKxxESt10_Select1stIS2_ESt4lessIxESaIS2_EE17_M_construct_nodeIJRKSt21piecewise_construct_tSt5tupleIJRS1_EESD_IJEEEEEvPSt13_Rb_tree_nodeIS2_EDpOT_, symObjAddr: 0x1C1C, symBinAddr: 0x1000054FC, symSize: 0x17C }
  - { offsetInCU: 0x24A9F, offset: 0x24A9F, size: 0x8, addend: 0x0, symName: __ZNSt4pairIPSt18_Rb_tree_node_baseS1_EC1IRPSt13_Rb_tree_nodeIS_IKxxEERS1_Lb1EEEOT_OT0_, symObjAddr: 0x1D98, symBinAddr: 0x100005678, symSize: 0x48 }
  - { offsetInCU: 0x24BDE, offset: 0x24BDE, size: 0x8, addend: 0x0, symName: __ZNSt8_Rb_treeIxSt4pairIKxxESt10_Select1stIS2_ESt4lessIxESaIS2_EE11_M_get_nodeEv, symObjAddr: 0x1BE0, symBinAddr: 0x1000054C0, symSize: 0x3C }
  - { offsetInCU: 0x24BE6, offset: 0x24BE6, size: 0x8, addend: 0x0, symName: __ZNSt8_Rb_treeIxSt4pairIKxxESt10_Select1stIS2_ESt4lessIxESaIS2_EE17_M_construct_nodeIJRKSt21piecewise_construct_tSt5tupleIJRS1_EESD_IJEEEEEvPSt13_Rb_tree_nodeIS2_EDpOT_, symObjAddr: 0x1C1C, symBinAddr: 0x1000054FC, symSize: 0x17C }
  - { offsetInCU: 0x24CB8, offset: 0x24CB8, size: 0x8, addend: 0x0, symName: __ZNSt8_Rb_treeIxSt4pairIKxxESt10_Select1stIS2_ESt4lessIxESaIS2_EE21_M_get_Node_allocatorEv, symObjAddr: 0x1BCC, symBinAddr: 0x1000054AC, symSize: 0x14 }
  - { offsetInCU: 0x24CC0, offset: 0x24CC0, size: 0x8, addend: 0x0, symName: __ZNSt8_Rb_treeIxSt4pairIKxxESt10_Select1stIS2_ESt4lessIxESaIS2_EE11_M_get_nodeEv, symObjAddr: 0x1BE0, symBinAddr: 0x1000054C0, symSize: 0x3C }
  - { offsetInCU: 0x24CE7, offset: 0x24CE7, size: 0x8, addend: 0x0, symName: __ZNSt8_Rb_treeIxSt4pairIKxxESt10_Select1stIS2_ESt4lessIxESaIS2_EE14_M_create_nodeIJRKSt21piecewise_construct_tSt5tupleIJOxEESD_IJEEEEEPSt13_Rb_tree_nodeIS2_EDpOT_, symObjAddr: 0x1B5C, symBinAddr: 0x10000543C, symSize: 0x70 }
  - { offsetInCU: 0x24CEF, offset: 0x24CEF, size: 0x8, addend: 0x0, symName: __ZNSt8_Rb_treeIxSt4pairIKxxESt10_Select1stIS2_ESt4lessIxESaIS2_EE21_M_get_Node_allocatorEv, symObjAddr: 0x1BCC, symBinAddr: 0x1000054AC, symSize: 0x14 }
  - { offsetInCU: 0x24DD7, offset: 0x24DD7, size: 0x8, addend: 0x0, symName: __ZNSt11_Tuple_implILm0EJOxEEC2IxEEOT_, symObjAddr: 0x1B20, symBinAddr: 0x100005400, symSize: 0x3C }
  - { offsetInCU: 0x24DDF, offset: 0x24DDF, size: 0x8, addend: 0x0, symName: __ZNSt8_Rb_treeIxSt4pairIKxxESt10_Select1stIS2_ESt4lessIxESaIS2_EE14_M_create_nodeIJRKSt21piecewise_construct_tSt5tupleIJOxEESD_IJEEEEEPSt13_Rb_tree_nodeIS2_EDpOT_, symObjAddr: 0x1B5C, symBinAddr: 0x10000543C, symSize: 0x70 }
  - { offsetInCU: 0x24DFD, offset: 0x24DFD, size: 0x8, addend: 0x0, symName: __ZN9__gnu_cxx16__aligned_membufISt4pairIKxxEE7_M_addrEv, symObjAddr: 0x1B0C, symBinAddr: 0x1000053EC, symSize: 0x14 }
  - { offsetInCU: 0x24E05, offset: 0x24E05, size: 0x8, addend: 0x0, symName: __ZNSt11_Tuple_implILm0EJOxEEC2IxEEOT_, symObjAddr: 0x1B20, symBinAddr: 0x100005400, symSize: 0x3C }
  - { offsetInCU: 0x24E2F, offset: 0x24E2F, size: 0x8, addend: 0x0, symName: __ZNSt8_Rb_treeIxSt4pairIKxxESt10_Select1stIS2_ESt4lessIxESaIS2_EE14_M_insert_nodeEPSt18_Rb_tree_node_baseSA_PSt13_Rb_tree_nodeIS2_E, symObjAddr: 0x1A38, symBinAddr: 0x100005318, symSize: 0xD4 }
  - { offsetInCU: 0x24E37, offset: 0x24E37, size: 0x8, addend: 0x0, symName: __ZN9__gnu_cxx16__aligned_membufISt4pairIKxxEE7_M_addrEv, symObjAddr: 0x1B0C, symBinAddr: 0x1000053EC, symSize: 0x14 }
  - { offsetInCU: 0x24EAF, offset: 0x24EAF, size: 0x8, addend: 0x0, symName: __ZNSt8_Rb_treeIxSt4pairIKxxESt10_Select1stIS2_ESt4lessIxESaIS2_EE6_S_keyEPKSt13_Rb_tree_nodeIS2_E, symObjAddr: 0x1A10, symBinAddr: 0x1000052F0, symSize: 0x28 }
  - { offsetInCU: 0x24EB7, offset: 0x24EB7, size: 0x8, addend: 0x0, symName: __ZNSt8_Rb_treeIxSt4pairIKxxESt10_Select1stIS2_ESt4lessIxESaIS2_EE14_M_insert_nodeEPSt18_Rb_tree_node_baseSA_PSt13_Rb_tree_nodeIS2_E, symObjAddr: 0x1A38, symBinAddr: 0x100005318, symSize: 0xD4 }
  - { offsetInCU: 0x24EE1, offset: 0x24EE1, size: 0x8, addend: 0x0, symName: __ZNSt17_Rb_tree_iteratorISt4pairIKxxEEmmEv, symObjAddr: 0x19E0, symBinAddr: 0x1000052C0, symSize: 0x30 }
  - { offsetInCU: 0x24EE9, offset: 0x24EE9, size: 0x8, addend: 0x0, symName: __ZNSt8_Rb_treeIxSt4pairIKxxESt10_Select1stIS2_ESt4lessIxESaIS2_EE6_S_keyEPKSt13_Rb_tree_nodeIS2_E, symObjAddr: 0x1A10, symBinAddr: 0x1000052F0, symSize: 0x28 }
  - { offsetInCU: 0x24FA3, offset: 0x24FA3, size: 0x8, addend: 0x0, symName: __ZNSt4pairIPSt18_Rb_tree_node_baseS1_EC1IRS1_S4_Lb1EEEOT_OT0_, symObjAddr: 0x1998, symBinAddr: 0x100005278, symSize: 0x48 }
  - { offsetInCU: 0x24FAB, offset: 0x24FAB, size: 0x8, addend: 0x0, symName: __ZNSt17_Rb_tree_iteratorISt4pairIKxxEEmmEv, symObjAddr: 0x19E0, symBinAddr: 0x1000052C0, symSize: 0x30 }
  - { offsetInCU: 0x24FC5, offset: 0x24FC5, size: 0x8, addend: 0x0, symName: __ZNSt8_Rb_treeIxSt4pairIKxxESt10_Select1stIS2_ESt4lessIxESaIS2_EE11_M_leftmostEv, symObjAddr: 0x1980, symBinAddr: 0x100005260, symSize: 0x18 }
  - { offsetInCU: 0x24FCD, offset: 0x24FCD, size: 0x8, addend: 0x0, symName: __ZNSt4pairIPSt18_Rb_tree_node_baseS1_EC1IRS1_S4_Lb1EEEOT_OT0_, symObjAddr: 0x1998, symBinAddr: 0x100005278, symSize: 0x48 }
  - { offsetInCU: 0x24FF4, offset: 0x24FF4, size: 0x8, addend: 0x0, symName: __ZNSt8_Rb_treeIxSt4pairIKxxESt10_Select1stIS2_ESt4lessIxESaIS2_EE24_M_get_insert_unique_posERS1_, symObjAddr: 0x1820, symBinAddr: 0x100005100, symSize: 0x160 }
  - { offsetInCU: 0x24FFC, offset: 0x24FFC, size: 0x8, addend: 0x0, symName: __ZNSt8_Rb_treeIxSt4pairIKxxESt10_Select1stIS2_ESt4lessIxESaIS2_EE11_M_leftmostEv, symObjAddr: 0x1980, symBinAddr: 0x100005260, symSize: 0x18 }
  - { offsetInCU: 0x25125, offset: 0x25125, size: 0x8, addend: 0x0, symName: __ZNSt4pairIPSt18_Rb_tree_node_baseS1_EC1IS1_S1_Lb1EEERKS1_S5_, symObjAddr: 0x17E4, symBinAddr: 0x1000050C4, symSize: 0x3C }
  - { offsetInCU: 0x2512D, offset: 0x2512D, size: 0x8, addend: 0x0, symName: __ZNSt8_Rb_treeIxSt4pairIKxxESt10_Select1stIS2_ESt4lessIxESaIS2_EE24_M_get_insert_unique_posERS1_, symObjAddr: 0x1820, symBinAddr: 0x100005100, symSize: 0x160 }
  - { offsetInCU: 0x25149, offset: 0x25149, size: 0x8, addend: 0x0, symName: __ZNSt8_Rb_treeIxSt4pairIKxxESt10_Select1stIS2_ESt4lessIxESaIS2_EE6_S_keyEPKSt18_Rb_tree_node_base, symObjAddr: 0x17C8, symBinAddr: 0x1000050A8, symSize: 0x1C }
  - { offsetInCU: 0x25151, offset: 0x25151, size: 0x8, addend: 0x0, symName: __ZNSt4pairIPSt18_Rb_tree_node_baseS1_EC1IS1_S1_Lb1EEERKS1_S5_, symObjAddr: 0x17E4, symBinAddr: 0x1000050C4, symSize: 0x3C }
  - { offsetInCU: 0x2517B, offset: 0x2517B, size: 0x8, addend: 0x0, symName: __ZNSt8_Rb_treeIxSt4pairIKxxESt10_Select1stIS2_ESt4lessIxESaIS2_EE12_M_rightmostEv, symObjAddr: 0x17B0, symBinAddr: 0x100005090, symSize: 0x18 }
  - { offsetInCU: 0x25183, offset: 0x25183, size: 0x8, addend: 0x0, symName: __ZNSt8_Rb_treeIxSt4pairIKxxESt10_Select1stIS2_ESt4lessIxESaIS2_EE6_S_keyEPKSt18_Rb_tree_node_base, symObjAddr: 0x17C8, symBinAddr: 0x1000050A8, symSize: 0x1C }
  - { offsetInCU: 0x251AA, offset: 0x251AA, size: 0x8, addend: 0x0, symName: __ZNKSt8_Rb_treeIxSt4pairIKxxESt10_Select1stIS2_ESt4lessIxESaIS2_EE4sizeEv, symObjAddr: 0x1798, symBinAddr: 0x100005078, symSize: 0x18 }
  - { offsetInCU: 0x251B2, offset: 0x251B2, size: 0x8, addend: 0x0, symName: __ZNSt8_Rb_treeIxSt4pairIKxxESt10_Select1stIS2_ESt4lessIxESaIS2_EE12_M_rightmostEv, symObjAddr: 0x17B0, symBinAddr: 0x100005090, symSize: 0x18 }
  - { offsetInCU: 0x251D9, offset: 0x251D9, size: 0x8, addend: 0x0, symName: __ZNKSt23_Rb_tree_const_iteratorISt4pairIKxxEE13_M_const_castEv, symObjAddr: 0x1770, symBinAddr: 0x100005050, symSize: 0x28 }
  - { offsetInCU: 0x251E1, offset: 0x251E1, size: 0x8, addend: 0x0, symName: __ZNKSt8_Rb_treeIxSt4pairIKxxESt10_Select1stIS2_ESt4lessIxESaIS2_EE4sizeEv, symObjAddr: 0x1798, symBinAddr: 0x100005078, symSize: 0x18 }
  - { offsetInCU: 0x25208, offset: 0x25208, size: 0x8, addend: 0x0, symName: __ZNSt8_Rb_treeIxSt4pairIKxxESt10_Select1stIS2_ESt4lessIxESaIS2_EE14_M_create_nodeIJRKSt21piecewise_construct_tSt5tupleIJRS1_EESD_IJEEEEEPSt13_Rb_tree_nodeIS2_EDpOT_, symObjAddr: 0x1700, symBinAddr: 0x100004FE0, symSize: 0x70 }
  - { offsetInCU: 0x25210, offset: 0x25210, size: 0x8, addend: 0x0, symName: __ZNKSt23_Rb_tree_const_iteratorISt4pairIKxxEE13_M_const_castEv, symObjAddr: 0x1770, symBinAddr: 0x100005050, symSize: 0x28 }
  - { offsetInCU: 0x252E9, offset: 0x252E9, size: 0x8, addend: 0x0, symName: __ZNSt10_Head_baseILm0ERKxLb0EEC2ES1_, symObjAddr: 0x16DC, symBinAddr: 0x100004FBC, symSize: 0x24 }
  - { offsetInCU: 0x252F1, offset: 0x252F1, size: 0x8, addend: 0x0, symName: __ZNSt8_Rb_treeIxSt4pairIKxxESt10_Select1stIS2_ESt4lessIxESaIS2_EE14_M_create_nodeIJRKSt21piecewise_construct_tSt5tupleIJRS1_EESD_IJEEEEEPSt13_Rb_tree_nodeIS2_EDpOT_, symObjAddr: 0x1700, symBinAddr: 0x100004FE0, symSize: 0x70 }
  - { offsetInCU: 0x252FE, offset: 0x252FE, size: 0x8, addend: 0x0, symName: __ZNSt8_Rb_treeIxSt4pairIKxxESt10_Select1stIS2_ESt4lessIxESaIS2_EE14_M_lower_boundEPSt13_Rb_tree_nodeIS2_EPSt18_Rb_tree_node_baseRS1_, symObjAddr: 0x163C, symBinAddr: 0x100004F1C, symSize: 0xA0 }
  - { offsetInCU: 0x25306, offset: 0x25306, size: 0x8, addend: 0x0, symName: __ZNSt10_Head_baseILm0ERKxLb0EEC2ES1_, symObjAddr: 0x16DC, symBinAddr: 0x100004FBC, symSize: 0x24 }
  - { offsetInCU: 0x25369, offset: 0x25369, size: 0x8, addend: 0x0, symName: __ZNSt8_Rb_treeIxSt4pairIKxxESt10_Select1stIS2_ESt4lessIxESaIS2_EE6_M_endEv, symObjAddr: 0x1624, symBinAddr: 0x100004F04, symSize: 0x18 }
  - { offsetInCU: 0x25371, offset: 0x25371, size: 0x8, addend: 0x0, symName: __ZNSt8_Rb_treeIxSt4pairIKxxESt10_Select1stIS2_ESt4lessIxESaIS2_EE14_M_lower_boundEPSt13_Rb_tree_nodeIS2_EPSt18_Rb_tree_node_baseRS1_, symObjAddr: 0x163C, symBinAddr: 0x100004F1C, symSize: 0xA0 }
  - { offsetInCU: 0x25398, offset: 0x25398, size: 0x8, addend: 0x0, symName: __ZNSt8_Rb_treeIxSt4pairIKxxESt10_Select1stIS2_ESt4lessIxESaIS2_EE11_M_put_nodeEPSt13_Rb_tree_nodeIS2_E, symObjAddr: 0x15D8, symBinAddr: 0x100004EB8, symSize: 0x4C }
  - { offsetInCU: 0x253A0, offset: 0x253A0, size: 0x8, addend: 0x0, symName: __ZNSt8_Rb_treeIxSt4pairIKxxESt10_Select1stIS2_ESt4lessIxESaIS2_EE6_M_endEv, symObjAddr: 0x1624, symBinAddr: 0x100004F04, symSize: 0x18 }
  - { offsetInCU: 0x2541A, offset: 0x2541A, size: 0x8, addend: 0x0, symName: __ZNSt8_Rb_treeIxSt4pairIKxxESt10_Select1stIS2_ESt4lessIxESaIS2_EE15_M_destroy_nodeEPSt13_Rb_tree_nodeIS2_E, symObjAddr: 0x1580, symBinAddr: 0x100004E60, symSize: 0x58 }
  - { offsetInCU: 0x25422, offset: 0x25422, size: 0x8, addend: 0x0, symName: __ZNSt8_Rb_treeIxSt4pairIKxxESt10_Select1stIS2_ESt4lessIxESaIS2_EE11_M_put_nodeEPSt13_Rb_tree_nodeIS2_E, symObjAddr: 0x15D8, symBinAddr: 0x100004EB8, symSize: 0x4C }
  - { offsetInCU: 0x255BE, offset: 0x255BE, size: 0x8, addend: 0x0, symName: __ZNSt8_Rb_treeIxSt4pairIKxxESt10_Select1stIS2_ESt4lessIxESaIS2_EE10_Auto_nodeC1IJRKSt21piecewise_construct_tSt5tupleIJOxEESE_IJEEEEERS8_DpOT_, symObjAddr: 0x1504, symBinAddr: 0x100004DE4, symSize: 0x7C }
  - { offsetInCU: 0x255C6, offset: 0x255C6, size: 0x8, addend: 0x0, symName: __ZNSt8_Rb_treeIxSt4pairIKxxESt10_Select1stIS2_ESt4lessIxESaIS2_EE15_M_destroy_nodeEPSt13_Rb_tree_nodeIS2_E, symObjAddr: 0x1580, symBinAddr: 0x100004E60, symSize: 0x58 }
  - { offsetInCU: 0x25621, offset: 0x25621, size: 0x8, addend: 0x0, symName: __ZSt7forwardISt5tupleIJOxEEEOT_RNSt16remove_referenceIS3_E4typeE, symObjAddr: 0x14F0, symBinAddr: 0x100004DD0, symSize: 0x14 }
  - { offsetInCU: 0x25629, offset: 0x25629, size: 0x8, addend: 0x0, symName: __ZNSt8_Rb_treeIxSt4pairIKxxESt10_Select1stIS2_ESt4lessIxESaIS2_EE10_Auto_nodeC1IJRKSt21piecewise_construct_tSt5tupleIJOxEESE_IJEEEEERS8_DpOT_, symObjAddr: 0x1504, symBinAddr: 0x100004DE4, symSize: 0x7C }
  - { offsetInCU: 0x25678, offset: 0x25678, size: 0x8, addend: 0x0, symName: __ZNSt5tupleIJOxEEC1IJxELb1ELb1EEEDpOT_, symObjAddr: 0x14B4, symBinAddr: 0x100004D94, symSize: 0x3C }
  - { offsetInCU: 0x25680, offset: 0x25680, size: 0x8, addend: 0x0, symName: __ZSt7forwardISt5tupleIJOxEEEOT_RNSt16remove_referenceIS3_E4typeE, symObjAddr: 0x14F0, symBinAddr: 0x100004DD0, symSize: 0x14 }
  - { offsetInCU: 0x256B0, offset: 0x256B0, size: 0x8, addend: 0x0, symName: __ZN9__gnu_cxx16__aligned_membufISt4pairIKxxEE6_M_ptrEv, symObjAddr: 0x1498, symBinAddr: 0x100004D78, symSize: 0x1C }
  - { offsetInCU: 0x256B8, offset: 0x256B8, size: 0x8, addend: 0x0, symName: __ZNSt5tupleIJOxEEC1IJxELb1ELb1EEEDpOT_, symObjAddr: 0x14B4, symBinAddr: 0x100004D94, symSize: 0x3C }
  - { offsetInCU: 0x2574A, offset: 0x2574A, size: 0x8, addend: 0x0, symName: __ZNSt17_Rb_tree_iteratorISt4pairIKxxEEC1EPSt18_Rb_tree_node_base, symObjAddr: 0x1474, symBinAddr: 0x100004D54, symSize: 0x24 }
  - { offsetInCU: 0x25752, offset: 0x25752, size: 0x8, addend: 0x0, symName: __ZN9__gnu_cxx16__aligned_membufISt4pairIKxxEE6_M_ptrEv, symObjAddr: 0x1498, symBinAddr: 0x100004D78, symSize: 0x1C }
  - { offsetInCU: 0x25743, offset: 0x25743, size: 0x8, addend: 0x0, symName: __ZNSt8_Rb_treeIxSt4pairIKxxESt10_Select1stIS2_ESt4lessIxESaIS2_EE10_Auto_node9_M_insertES0_IPSt18_Rb_tree_node_baseSB_E, symObjAddr: 0x1428, symBinAddr: 0x100004D08, symSize: 0x4C }
  - { offsetInCU: 0x2574B, offset: 0x2574B, size: 0x8, addend: 0x0, symName: __ZNSt17_Rb_tree_iteratorISt4pairIKxxEEC1EPSt18_Rb_tree_node_base, symObjAddr: 0x1474, symBinAddr: 0x100004D54, symSize: 0x24 }
  - { offsetInCU: 0x2579B, offset: 0x2579B, size: 0x8, addend: 0x0, symName: __ZNKSt8_Rb_treeIxSt4pairIKxxESt10_Select1stIS2_ESt4lessIxESaIS2_EE10_Auto_node6_M_keyEv, symObjAddr: 0x1408, symBinAddr: 0x100004CE8, symSize: 0x20 }
  - { offsetInCU: 0x257A3, offset: 0x257A3, size: 0x8, addend: 0x0, symName: __ZNSt8_Rb_treeIxSt4pairIKxxESt10_Select1stIS2_ESt4lessIxESaIS2_EE10_Auto_node9_M_insertES0_IPSt18_Rb_tree_node_baseSB_E, symObjAddr: 0x1428, symBinAddr: 0x100004D08, symSize: 0x4C }
  - { offsetInCU: 0x257CA, offset: 0x257CA, size: 0x8, addend: 0x0, symName: __ZNSt8_Rb_treeIxSt4pairIKxxESt10_Select1stIS2_ESt4lessIxESaIS2_EE29_M_get_insert_hint_unique_posESt23_Rb_tree_const_iteratorIS2_ERS1_, symObjAddr: 0x10D0, symBinAddr: 0x1000049B0, symSize: 0x338 }
  - { offsetInCU: 0x257D2, offset: 0x257D2, size: 0x8, addend: 0x0, symName: __ZNKSt8_Rb_treeIxSt4pairIKxxESt10_Select1stIS2_ESt4lessIxESaIS2_EE10_Auto_node6_M_keyEv, symObjAddr: 0x1408, symBinAddr: 0x100004CE8, symSize: 0x20 }
  - { offsetInCU: 0x25905, offset: 0x25905, size: 0x8, addend: 0x0, symName: __ZNSt8_Rb_treeIxSt4pairIKxxESt10_Select1stIS2_ESt4lessIxESaIS2_EE10_Auto_nodeD1Ev, symObjAddr: 0x108C, symBinAddr: 0x10000496C, symSize: 0x44 }
  - { offsetInCU: 0x2590D, offset: 0x2590D, size: 0x8, addend: 0x0, symName: __ZNSt8_Rb_treeIxSt4pairIKxxESt10_Select1stIS2_ESt4lessIxESaIS2_EE29_M_get_insert_hint_unique_posESt23_Rb_tree_const_iteratorIS2_ERS1_, symObjAddr: 0x10D0, symBinAddr: 0x1000049B0, symSize: 0x338 }
  - { offsetInCU: 0x259DE, offset: 0x259DE, size: 0x8, addend: 0x0, symName: __ZNSt8_Rb_treeIxSt4pairIKxxESt10_Select1stIS2_ESt4lessIxESaIS2_EE10_Auto_nodeC1IJRKSt21piecewise_construct_tSt5tupleIJRS1_EESE_IJEEEEERS8_DpOT_, symObjAddr: 0x1010, symBinAddr: 0x1000048F0, symSize: 0x7C }
  - { offsetInCU: 0x259E6, offset: 0x259E6, size: 0x8, addend: 0x0, symName: __ZNSt8_Rb_treeIxSt4pairIKxxESt10_Select1stIS2_ESt4lessIxESaIS2_EE10_Auto_nodeD1Ev, symObjAddr: 0x108C, symBinAddr: 0x10000496C, symSize: 0x44 }
  - { offsetInCU: 0x25A2E, offset: 0x25A2E, size: 0x8, addend: 0x0, symName: __ZSt7forwardISt5tupleIJEEEOT_RNSt16remove_referenceIS2_E4typeE, symObjAddr: 0xFFC, symBinAddr: 0x1000048DC, symSize: 0x14 }
  - { offsetInCU: 0x25A36, offset: 0x25A36, size: 0x8, addend: 0x0, symName: __ZNSt8_Rb_treeIxSt4pairIKxxESt10_Select1stIS2_ESt4lessIxESaIS2_EE10_Auto_nodeC1IJRKSt21piecewise_construct_tSt5tupleIJRS1_EESE_IJEEEEERS8_DpOT_, symObjAddr: 0x1010, symBinAddr: 0x1000048F0, symSize: 0x7C }
  - { offsetInCU: 0x25A99, offset: 0x25A99, size: 0x8, addend: 0x0, symName: __ZSt7forwardISt5tupleIJRKxEEEOT_RNSt16remove_referenceIS4_E4typeE, symObjAddr: 0xFE8, symBinAddr: 0x1000048C8, symSize: 0x14 }
  - { offsetInCU: 0x25AA1, offset: 0x25AA1, size: 0x8, addend: 0x0, symName: __ZSt7forwardISt5tupleIJEEEOT_RNSt16remove_referenceIS2_E4typeE, symObjAddr: 0xFFC, symBinAddr: 0x1000048DC, symSize: 0x14 }
  - { offsetInCU: 0x25AF9, offset: 0x25AF9, size: 0x8, addend: 0x0, symName: __ZSt7forwardIRKSt21piecewise_construct_tEOT_RNSt16remove_referenceIS3_E4typeE, symObjAddr: 0xFD4, symBinAddr: 0x1000048B4, symSize: 0x14 }
  - { offsetInCU: 0x25B01, offset: 0x25B01, size: 0x8, addend: 0x0, symName: __ZSt7forwardISt5tupleIJRKxEEEOT_RNSt16remove_referenceIS4_E4typeE, symObjAddr: 0xFE8, symBinAddr: 0x1000048C8, symSize: 0x14 }
  - { offsetInCU: 0x25B1E, offset: 0x25B1E, size: 0x8, addend: 0x0, symName: __ZNSt11_Tuple_implILm0EJRKxEEC2ES1_, symObjAddr: 0xFAC, symBinAddr: 0x10000488C, symSize: 0x28 }
  - { offsetInCU: 0x25B26, offset: 0x25B26, size: 0x8, addend: 0x0, symName: __ZSt7forwardIRKSt21piecewise_construct_tEOT_RNSt16remove_referenceIS3_E4typeE, symObjAddr: 0xFD4, symBinAddr: 0x1000048B4, symSize: 0x14 }
  - { offsetInCU: 0x25B34, offset: 0x25B34, size: 0x8, addend: 0x0, symName: __ZNKSt8_Rb_treeIxSt4pairIKxxESt10_Select1stIS2_ESt4lessIxESaIS2_EE8key_compEv, symObjAddr: 0xF94, symBinAddr: 0x100004874, symSize: 0x18 }
  - { offsetInCU: 0x25B3C, offset: 0x25B3C, size: 0x8, addend: 0x0, symName: __ZNSt11_Tuple_implILm0EJRKxEEC2ES1_, symObjAddr: 0xFAC, symBinAddr: 0x10000488C, symSize: 0x28 }
  - { offsetInCU: 0x25B63, offset: 0x25B63, size: 0x8, addend: 0x0, symName: __ZNSt8_Rb_treeIxSt4pairIKxxESt10_Select1stIS2_ESt4lessIxESaIS2_EE11lower_boundERS1_, symObjAddr: 0xF4C, symBinAddr: 0x10000482C, symSize: 0x48 }
  - { offsetInCU: 0x25B6B, offset: 0x25B6B, size: 0x8, addend: 0x0, symName: __ZNKSt8_Rb_treeIxSt4pairIKxxESt10_Select1stIS2_ESt4lessIxESaIS2_EE8key_compEv, symObjAddr: 0xF94, symBinAddr: 0x100004874, symSize: 0x18 }
  - { offsetInCU: 0x25BA6, offset: 0x25BA6, size: 0x8, addend: 0x0, symName: __ZNKSt8_Rb_treeIxSt4pairIKxxESt10_Select1stIS2_ESt4lessIxESaIS2_EE9_M_mbeginEv, symObjAddr: 0xF34, symBinAddr: 0x100004814, symSize: 0x18 }
  - { offsetInCU: 0x25BAE, offset: 0x25BAE, size: 0x8, addend: 0x0, symName: __ZNSt8_Rb_treeIxSt4pairIKxxESt10_Select1stIS2_ESt4lessIxESaIS2_EE11lower_boundERS1_, symObjAddr: 0xF4C, symBinAddr: 0x10000482C, symSize: 0x48 }
  - { offsetInCU: 0x25BD5, offset: 0x25BD5, size: 0x8, addend: 0x0, symName: __ZNSt8_Rb_treeIxSt4pairIKxxESt10_Select1stIS2_ESt4lessIxESaIS2_EE12_M_drop_nodeEPSt13_Rb_tree_nodeIS2_E, symObjAddr: 0xF00, symBinAddr: 0x1000047E0, symSize: 0x34 }
  - { offsetInCU: 0x25BDD, offset: 0x25BDD, size: 0x8, addend: 0x0, symName: __ZNKSt8_Rb_treeIxSt4pairIKxxESt10_Select1stIS2_ESt4lessIxESaIS2_EE9_M_mbeginEv, symObjAddr: 0xF34, symBinAddr: 0x100004814, symSize: 0x18 }
  - { offsetInCU: 0x25C18, offset: 0x25C18, size: 0x8, addend: 0x0, symName: __ZNSt8_Rb_treeIxSt4pairIKxxESt10_Select1stIS2_ESt4lessIxESaIS2_EE7_S_leftEPSt18_Rb_tree_node_base, symObjAddr: 0xEE8, symBinAddr: 0x1000047C8, symSize: 0x18 }
  - { offsetInCU: 0x25C20, offset: 0x25C20, size: 0x8, addend: 0x0, symName: __ZNSt8_Rb_treeIxSt4pairIKxxESt10_Select1stIS2_ESt4lessIxESaIS2_EE12_M_drop_nodeEPSt13_Rb_tree_nodeIS2_E, symObjAddr: 0xF00, symBinAddr: 0x1000047E0, symSize: 0x34 }
  - { offsetInCU: 0x25C4A, offset: 0x25C4A, size: 0x8, addend: 0x0, symName: __ZNSt8_Rb_treeIxSt4pairIKxxESt10_Select1stIS2_ESt4lessIxESaIS2_EE8_S_rightEPSt18_Rb_tree_node_base, symObjAddr: 0xED0, symBinAddr: 0x1000047B0, symSize: 0x18 }
  - { offsetInCU: 0x25C52, offset: 0x25C52, size: 0x8, addend: 0x0, symName: __ZNSt8_Rb_treeIxSt4pairIKxxESt10_Select1stIS2_ESt4lessIxESaIS2_EE7_S_leftEPSt18_Rb_tree_node_base, symObjAddr: 0xEE8, symBinAddr: 0x1000047C8, symSize: 0x18 }
  - { offsetInCU: 0x25C95, offset: 0x25C95, size: 0x8, addend: 0x0, symName: __ZNSt8_Rb_treeIxSt4pairIKxxESt10_Select1stIS2_ESt4lessIxESaIS2_EE22_M_emplace_hint_uniqueIJRKSt21piecewise_construct_tSt5tupleIJOxEESD_IJEEEEESt17_Rb_tree_iteratorIS2_ESt23_Rb_tree_const_iteratorIS2_EDpOT_, symObjAddr: 0xDF8, symBinAddr: 0x1000046D8, symSize: 0xD8 }
  - { offsetInCU: 0x25C9D, offset: 0x25C9D, size: 0x8, addend: 0x0, symName: __ZNSt8_Rb_treeIxSt4pairIKxxESt10_Select1stIS2_ESt4lessIxESaIS2_EE8_S_rightEPSt18_Rb_tree_node_base, symObjAddr: 0xED0, symBinAddr: 0x1000047B0, symSize: 0x18 }
  - { offsetInCU: 0x25DA9, offset: 0x25DA9, size: 0x8, addend: 0x0, symName: __ZSt16forward_as_tupleIJxEESt5tupleIJDpOT_EES3_, symObjAddr: 0xDC0, symBinAddr: 0x1000046A0, symSize: 0x38 }
  - { offsetInCU: 0x25DB1, offset: 0x25DB1, size: 0x8, addend: 0x0, symName: __ZNSt8_Rb_treeIxSt4pairIKxxESt10_Select1stIS2_ESt4lessIxESaIS2_EE22_M_emplace_hint_uniqueIJRKSt21piecewise_construct_tSt5tupleIJOxEESD_IJEEEEESt17_Rb_tree_iteratorIS2_ESt23_Rb_tree_const_iteratorIS2_EDpOT_, symObjAddr: 0xDF8, symBinAddr: 0x1000046D8, symSize: 0xD8 }
  - { offsetInCU: 0x25DED, offset: 0x25DED, size: 0x8, addend: 0x0, symName: __ZSt4moveIRxEONSt16remove_referenceIT_E4typeEOS2_, symObjAddr: 0xDAC, symBinAddr: 0x10000468C, symSize: 0x14 }
  - { offsetInCU: 0x25DF5, offset: 0x25DF5, size: 0x8, addend: 0x0, symName: __ZSt16forward_as_tupleIJxEESt5tupleIJDpOT_EES3_, symObjAddr: 0xDC0, symBinAddr: 0x1000046A0, symSize: 0x38 }
  - { offsetInCU: 0x25DF6, offset: 0x25DF6, size: 0x8, addend: 0x0, symName: __ZNSt13_Rb_tree_nodeISt4pairIKxxEE9_M_valptrEv, symObjAddr: 0xD8C, symBinAddr: 0x10000466C, symSize: 0x20 }
  - { offsetInCU: 0x25DFE, offset: 0x25DFE, size: 0x8, addend: 0x0, symName: __ZSt4moveIRxEONSt16remove_referenceIT_E4typeEOS2_, symObjAddr: 0xDAC, symBinAddr: 0x10000468C, symSize: 0x14 }
  - { offsetInCU: 0x25E25, offset: 0x25E25, size: 0x8, addend: 0x0, symName: __ZNSt8_Rb_treeIxSt4pairIKxxESt10_Select1stIS2_ESt4lessIxESaIS2_EE3endEv, symObjAddr: 0xD64, symBinAddr: 0x100004644, symSize: 0x28 }
  - { offsetInCU: 0x25E2D, offset: 0x25E2D, size: 0x8, addend: 0x0, symName: __ZNSt13_Rb_tree_nodeISt4pairIKxxEE9_M_valptrEv, symObjAddr: 0xD8C, symBinAddr: 0x10000466C, symSize: 0x20 }
  - { offsetInCU: 0x25E54, offset: 0x25E54, size: 0x8, addend: 0x0, symName: __ZNSt8_Rb_treeIxSt4pairIKxxESt10_Select1stIS2_ESt4lessIxESaIS2_EE5beginEv, symObjAddr: 0xD3C, symBinAddr: 0x10000461C, symSize: 0x28 }
  - { offsetInCU: 0x25E5C, offset: 0x25E5C, size: 0x8, addend: 0x0, symName: __ZNSt8_Rb_treeIxSt4pairIKxxESt10_Select1stIS2_ESt4lessIxESaIS2_EE3endEv, symObjAddr: 0xD64, symBinAddr: 0x100004644, symSize: 0x28 }
  - { offsetInCU: 0x25E83, offset: 0x25E83, size: 0x8, addend: 0x0, symName: __ZNSt8_Rb_treeIxSt4pairIKxxESt10_Select1stIS2_ESt4lessIxESaIS2_EE22_M_emplace_hint_uniqueIJRKSt21piecewise_construct_tSt5tupleIJRS1_EESD_IJEEEEESt17_Rb_tree_iteratorIS2_ESt23_Rb_tree_const_iteratorIS2_EDpOT_, symObjAddr: 0xC64, symBinAddr: 0x100004544, symSize: 0xD8 }
  - { offsetInCU: 0x25E8B, offset: 0x25E8B, size: 0x8, addend: 0x0, symName: __ZNSt8_Rb_treeIxSt4pairIKxxESt10_Select1stIS2_ESt4lessIxESaIS2_EE5beginEv, symObjAddr: 0xD3C, symBinAddr: 0x10000461C, symSize: 0x28 }
  - { offsetInCU: 0x25FB8, offset: 0x25FB8, size: 0x8, addend: 0x0, symName: __ZNSt23_Rb_tree_const_iteratorISt4pairIKxxEEC1ERKSt17_Rb_tree_iteratorIS2_E, symObjAddr: 0xC3C, symBinAddr: 0x10000451C, symSize: 0x28 }
  - { offsetInCU: 0x25FC0, offset: 0x25FC0, size: 0x8, addend: 0x0, symName: __ZNSt8_Rb_treeIxSt4pairIKxxESt10_Select1stIS2_ESt4lessIxESaIS2_EE22_M_emplace_hint_uniqueIJRKSt21piecewise_construct_tSt5tupleIJRS1_EESD_IJEEEEESt17_Rb_tree_iteratorIS2_ESt23_Rb_tree_const_iteratorIS2_EDpOT_, symObjAddr: 0xC64, symBinAddr: 0x100004544, symSize: 0xD8 }
  - { offsetInCU: 0x26002, offset: 0x26002, size: 0x8, addend: 0x0, symName: __ZNSt5tupleIJRKxEEC1ILb1ELb1EEES1_, symObjAddr: 0xC14, symBinAddr: 0x1000044F4, symSize: 0x28 }
  - { offsetInCU: 0x2600A, offset: 0x2600A, size: 0x8, addend: 0x0, symName: __ZNSt23_Rb_tree_const_iteratorISt4pairIKxxEEC1ERKSt17_Rb_tree_iteratorIS2_E, symObjAddr: 0xC3C, symBinAddr: 0x10000451C, symSize: 0x28 }
  - { offsetInCU: 0x26028, offset: 0x26028, size: 0x8, addend: 0x0, symName: __ZNKSt4lessIxEclERKxS2_, symObjAddr: 0xBE0, symBinAddr: 0x1000044C0, symSize: 0x34 }
  - { offsetInCU: 0x26030, offset: 0x26030, size: 0x8, addend: 0x0, symName: __ZNSt5tupleIJRKxEEC1ILb1ELb1EEES1_, symObjAddr: 0xC14, symBinAddr: 0x1000044F4, symSize: 0x28 }
  - { offsetInCU: 0x2607F, offset: 0x2607F, size: 0x8, addend: 0x0, symName: __ZNKSt3mapIxxSt4lessIxESaISt4pairIKxxEEE8key_compEv, symObjAddr: 0xBB4, symBinAddr: 0x100004494, symSize: 0x2C }
  - { offsetInCU: 0x26087, offset: 0x26087, size: 0x8, addend: 0x0, symName: __ZNKSt4lessIxEclERKxS2_, symObjAddr: 0xBE0, symBinAddr: 0x1000044C0, symSize: 0x34 }
  - { offsetInCU: 0x260E7, offset: 0x260E7, size: 0x8, addend: 0x0, symName: __ZSteqRKSt17_Rb_tree_iteratorISt4pairIKxxEES5_, symObjAddr: 0xB84, symBinAddr: 0x100004464, symSize: 0x30 }
  - { offsetInCU: 0x260EF, offset: 0x260EF, size: 0x8, addend: 0x0, symName: __ZNKSt3mapIxxSt4lessIxESaISt4pairIKxxEEE8key_compEv, symObjAddr: 0xBB4, symBinAddr: 0x100004494, symSize: 0x2C }
  - { offsetInCU: 0x2610B, offset: 0x2610B, size: 0x8, addend: 0x0, symName: __ZNSt3mapIxxSt4lessIxESaISt4pairIKxxEEE11lower_boundERS3_, symObjAddr: 0xB60, symBinAddr: 0x100004440, symSize: 0x24 }
  - { offsetInCU: 0x26113, offset: 0x26113, size: 0x8, addend: 0x0, symName: __ZSteqRKSt17_Rb_tree_iteratorISt4pairIKxxEES5_, symObjAddr: 0xB84, symBinAddr: 0x100004464, symSize: 0x30 }
  - { offsetInCU: 0x2614E, offset: 0x2614E, size: 0x8, addend: 0x0, symName: __ZNSt8_Rb_treeIxSt4pairIKxxESt10_Select1stIS2_ESt4lessIxESaIS2_EE8_M_beginEv, symObjAddr: 0xB44, symBinAddr: 0x100004424, symSize: 0x1C }
  - { offsetInCU: 0x26156, offset: 0x26156, size: 0x8, addend: 0x0, symName: __ZNSt3mapIxxSt4lessIxESaISt4pairIKxxEEE11lower_boundERS3_, symObjAddr: 0xB60, symBinAddr: 0x100004440, symSize: 0x24 }
  - { offsetInCU: 0x2617D, offset: 0x2617D, size: 0x8, addend: 0x0, symName: __ZNSt8_Rb_treeIxSt4pairIKxxESt10_Select1stIS2_ESt4lessIxESaIS2_EE8_M_eraseEPSt13_Rb_tree_nodeIS2_E, symObjAddr: 0xAE0, symBinAddr: 0x1000043C0, symSize: 0x64 }
  - { offsetInCU: 0x26185, offset: 0x26185, size: 0x8, addend: 0x0, symName: __ZNSt8_Rb_treeIxSt4pairIKxxESt10_Select1stIS2_ESt4lessIxESaIS2_EE8_M_beginEv, symObjAddr: 0xB44, symBinAddr: 0x100004424, symSize: 0x1C }
  - { offsetInCU: 0x2624B, offset: 0x2624B, size: 0x8, addend: 0x0, symName: __ZNSt15__new_allocatorISt13_Rb_tree_nodeISt4pairIKxxEEED2Ev, symObjAddr: 0xACC, symBinAddr: 0x1000043AC, symSize: 0x14 }
  - { offsetInCU: 0x26253, offset: 0x26253, size: 0x8, addend: 0x0, symName: __ZNSt8_Rb_treeIxSt4pairIKxxESt10_Select1stIS2_ESt4lessIxESaIS2_EE8_M_eraseEPSt13_Rb_tree_nodeIS2_E, symObjAddr: 0xAE0, symBinAddr: 0x1000043C0, symSize: 0x64 }
  - { offsetInCU: 0x26282, offset: 0x26282, size: 0x8, addend: 0x0, symName: __ZNSt20_Rb_tree_key_compareISt4lessIxEEC2Ev, symObjAddr: 0xAB8, symBinAddr: 0x100004398, symSize: 0x14 }
  - { offsetInCU: 0x2628A, offset: 0x2628A, size: 0x8, addend: 0x0, symName: __ZNSt15__new_allocatorISt13_Rb_tree_nodeISt4pairIKxxEEED2Ev, symObjAddr: 0xACC, symBinAddr: 0x1000043AC, symSize: 0x14 }
  - { offsetInCU: 0x2629D, offset: 0x2629D, size: 0x8, addend: 0x0, symName: __ZNSt3mapIxxSt4lessIxESaISt4pairIKxxEEEixEOx, symObjAddr: 0x9B4, symBinAddr: 0x100004294, symSize: 0x104 }
  - { offsetInCU: 0x262A5, offset: 0x262A5, size: 0x8, addend: 0x0, symName: __ZNSt20_Rb_tree_key_compareISt4lessIxEEC2Ev, symObjAddr: 0xAB8, symBinAddr: 0x100004398, symSize: 0x14 }
  - { offsetInCU: 0x262F5, offset: 0x262F5, size: 0x8, addend: 0x0, symName: __ZNKSt17_Rb_tree_iteratorISt4pairIKxxEEdeEv, symObjAddr: 0x994, symBinAddr: 0x100004274, symSize: 0x20 }
  - { offsetInCU: 0x262FD, offset: 0x262FD, size: 0x8, addend: 0x0, symName: __ZNSt3mapIxxSt4lessIxESaISt4pairIKxxEEEixEOx, symObjAddr: 0x9B4, symBinAddr: 0x100004294, symSize: 0x104 }
  - { offsetInCU: 0x26324, offset: 0x26324, size: 0x8, addend: 0x0, symName: __ZNSt17_Rb_tree_iteratorISt4pairIKxxEEppEv, symObjAddr: 0x964, symBinAddr: 0x100004244, symSize: 0x30 }
  - { offsetInCU: 0x2632C, offset: 0x2632C, size: 0x8, addend: 0x0, symName: __ZNKSt17_Rb_tree_iteratorISt4pairIKxxEEdeEv, symObjAddr: 0x994, symBinAddr: 0x100004274, symSize: 0x20 }
  - { offsetInCU: 0x2638C, offset: 0x2638C, size: 0x8, addend: 0x0, symName: __ZStneRKSt17_Rb_tree_iteratorISt4pairIKxxEES5_, symObjAddr: 0x934, symBinAddr: 0x100004214, symSize: 0x30 }
  - { offsetInCU: 0x26394, offset: 0x26394, size: 0x8, addend: 0x0, symName: __ZNSt17_Rb_tree_iteratorISt4pairIKxxEEppEv, symObjAddr: 0x964, symBinAddr: 0x100004244, symSize: 0x30 }
  - { offsetInCU: 0x263A6, offset: 0x263A6, size: 0x8, addend: 0x0, symName: __ZNSt3mapIxxSt4lessIxESaISt4pairIKxxEEE3endEv, symObjAddr: 0x918, symBinAddr: 0x1000041F8, symSize: 0x1C }
  - { offsetInCU: 0x263AE, offset: 0x263AE, size: 0x8, addend: 0x0, symName: __ZStneRKSt17_Rb_tree_iteratorISt4pairIKxxEES5_, symObjAddr: 0x934, symBinAddr: 0x100004214, symSize: 0x30 }
  - { offsetInCU: 0x263D5, offset: 0x263D5, size: 0x8, addend: 0x0, symName: __ZNSt3mapIxxSt4lessIxESaISt4pairIKxxEEE5beginEv, symObjAddr: 0x8FC, symBinAddr: 0x1000041DC, symSize: 0x1C }
  - { offsetInCU: 0x263DD, offset: 0x263DD, size: 0x8, addend: 0x0, symName: __ZNSt3mapIxxSt4lessIxESaISt4pairIKxxEEE3endEv, symObjAddr: 0x918, symBinAddr: 0x1000041F8, symSize: 0x1C }
  - { offsetInCU: 0x26404, offset: 0x26404, size: 0x8, addend: 0x0, symName: __ZNSt3mapIxxSt4lessIxESaISt4pairIKxxEEEixERS3_, symObjAddr: 0x808, symBinAddr: 0x1000040E8, symSize: 0xF4 }
  - { offsetInCU: 0x2640C, offset: 0x2640C, size: 0x8, addend: 0x0, symName: __ZNSt3mapIxxSt4lessIxESaISt4pairIKxxEEE5beginEv, symObjAddr: 0x8FC, symBinAddr: 0x1000041DC, symSize: 0x1C }
  - { offsetInCU: 0x264C9, offset: 0x264C9, size: 0x8, addend: 0x0, symName: __ZNSt8_Rb_treeIxSt4pairIKxxESt10_Select1stIS2_ESt4lessIxESaIS2_EED1Ev, symObjAddr: 0x7D4, symBinAddr: 0x1000040B4, symSize: 0x34 }
  - { offsetInCU: 0x264D1, offset: 0x264D1, size: 0x8, addend: 0x0, symName: __ZNSt3mapIxxSt4lessIxESaISt4pairIKxxEEEixERS3_, symObjAddr: 0x808, symBinAddr: 0x1000040E8, symSize: 0xF4 }
  - { offsetInCU: 0x2654F, offset: 0x2654F, size: 0x8, addend: 0x0, symName: __ZNSt8_Rb_treeIxSt4pairIKxxESt10_Select1stIS2_ESt4lessIxESaIS2_EE13_Rb_tree_implIS6_Lb1EEC1Ev, symObjAddr: 0x790, symBinAddr: 0x100004070, symSize: 0x44 }
  - { offsetInCU: 0x26557, offset: 0x26557, size: 0x8, addend: 0x0, symName: __ZNSt8_Rb_treeIxSt4pairIKxxESt10_Select1stIS2_ESt4lessIxESaIS2_EED1Ev, symObjAddr: 0x7D4, symBinAddr: 0x1000040B4, symSize: 0x34 }
  - { offsetInCU: 0x26577, offset: 0x26577, size: 0x8, addend: 0x0, symName: _main, symObjAddr: 0x4E0, symBinAddr: 0x100003DC0, symSize: 0x2B0 }
  - { offsetInCU: 0x2657F, offset: 0x2657F, size: 0x8, addend: 0x0, symName: __ZNSt8_Rb_treeIxSt4pairIKxxESt10_Select1stIS2_ESt4lessIxESaIS2_EE13_Rb_tree_implIS6_Lb1EEC1Ev, symObjAddr: 0x790, symBinAddr: 0x100004070, symSize: 0x44 }
  - { offsetInCU: 0x2672B, offset: 0x2672B, size: 0x8, addend: 0x0, symName: __ZSt7forwardIxEOT_RNSt16remove_referenceIS0_E4typeE, symObjAddr: 0x4CC, symBinAddr: 0x100003DAC, symSize: 0x14 }
  - { offsetInCU: 0x26733, offset: 0x26733, size: 0x8, addend: 0x0, symName: _main, symObjAddr: 0x4E0, symBinAddr: 0x100003DC0, symSize: 0x2B0 }
  - { offsetInCU: 0x26730, offset: 0x26730, size: 0x8, addend: 0x0, symName: __ZNSt10__pair_getILm1EE10__move_getIKxxEEOT0_OSt4pairIT_S3_E, symObjAddr: 0x4AC, symBinAddr: 0x100003D8C, symSize: 0x20 }
  - { offsetInCU: 0x26738, offset: 0x26738, size: 0x8, addend: 0x0, symName: __ZSt7forwardIxEOT_RNSt16remove_referenceIS0_E4typeE, symObjAddr: 0x4CC, symBinAddr: 0x100003DAC, symSize: 0x14 }
  - { offsetInCU: 0x267F0, offset: 0x267F0, size: 0x8, addend: 0x0, symName: __ZSt3getILm1EKxxEONSt13tuple_elementIXT_ESt4pairIT0_T1_EE4typeEOS5_, symObjAddr: 0x48C, symBinAddr: 0x100003D6C, symSize: 0x20 }
  - { offsetInCU: 0x267F8, offset: 0x267F8, size: 0x8, addend: 0x0, symName: __ZNSt10__pair_getILm1EE10__move_getIKxxEEOT0_OSt4pairIT_S3_E, symObjAddr: 0x4AC, symBinAddr: 0x100003D8C, symSize: 0x20 }
  - { offsetInCU: 0x26839, offset: 0x26839, size: 0x8, addend: 0x0, symName: __ZSt7forwardIKxEOT_RNSt16remove_referenceIS1_E4typeE, symObjAddr: 0x478, symBinAddr: 0x100003D58, symSize: 0x14 }
  - { offsetInCU: 0x26841, offset: 0x26841, size: 0x8, addend: 0x0, symName: __ZSt3getILm1EKxxEONSt13tuple_elementIXT_ESt4pairIT0_T1_EE4typeEOS5_, symObjAddr: 0x48C, symBinAddr: 0x100003D6C, symSize: 0x20 }
  - { offsetInCU: 0x26837, offset: 0x26837, size: 0x8, addend: 0x0, symName: __ZNSt10__pair_getILm0EE10__move_getIKxxEEOT_OSt4pairIS3_T0_E, symObjAddr: 0x45C, symBinAddr: 0x100003D3C, symSize: 0x1C }
  - { offsetInCU: 0x2683F, offset: 0x2683F, size: 0x8, addend: 0x0, symName: __ZSt7forwardIKxEOT_RNSt16remove_referenceIS1_E4typeE, symObjAddr: 0x478, symBinAddr: 0x100003D58, symSize: 0x14 }
  - { offsetInCU: 0x268F9, offset: 0x268F9, size: 0x8, addend: 0x0, symName: __ZSt4moveIRSt4pairIKxxEEONSt16remove_referenceIT_E4typeEOS5_, symObjAddr: 0x448, symBinAddr: 0x100003D28, symSize: 0x14 }
  - { offsetInCU: 0x26901, offset: 0x26901, size: 0x8, addend: 0x0, symName: __ZNSt10__pair_getILm0EE10__move_getIKxxEEOT_OSt4pairIS3_T0_E, symObjAddr: 0x45C, symBinAddr: 0x100003D3C, symSize: 0x1C }
  - { offsetInCU: 0x2694B, offset: 0x2694B, size: 0x8, addend: 0x0, symName: __ZSt3getILm0EKxxEONSt13tuple_elementIXT_ESt4pairIT0_T1_EE4typeEOS5_, symObjAddr: 0x428, symBinAddr: 0x100003D08, symSize: 0x20 }
  - { offsetInCU: 0x26953, offset: 0x26953, size: 0x8, addend: 0x0, symName: __ZSt4moveIRSt4pairIKxxEEONSt16remove_referenceIT_E4typeEOS5_, symObjAddr: 0x448, symBinAddr: 0x100003D28, symSize: 0x14 }
  - { offsetInCU: 0x26991, offset: 0x26991, size: 0x8, addend: 0x0, symName: __ZNSt3mapIxxSt4lessIxESaISt4pairIKxxEEED1Ev, symObjAddr: 0x408, symBinAddr: 0x100003CE8, symSize: 0x20 }
  - { offsetInCU: 0x26999, offset: 0x26999, size: 0x8, addend: 0x0, symName: __ZSt3getILm0EKxxEONSt13tuple_elementIXT_ESt4pairIT0_T1_EE4typeEOS5_, symObjAddr: 0x428, symBinAddr: 0x100003D08, symSize: 0x20 }
  - { offsetInCU: 0x269D8, offset: 0x269D8, size: 0x8, addend: 0x0, symName: __ZNSt3mapIxxSt4lessIxESaISt4pairIKxxEEEC1Ev, symObjAddr: 0x3E8, symBinAddr: 0x100003CC8, symSize: 0x20 }
  - { offsetInCU: 0x269E0, offset: 0x269E0, size: 0x8, addend: 0x0, symName: __ZNSt3mapIxxSt4lessIxESaISt4pairIKxxEEED1Ev, symObjAddr: 0x408, symBinAddr: 0x100003CE8, symSize: 0x20 }
  - { offsetInCU: 0x26A39, offset: 0x26A39, size: 0x8, addend: 0x0, symName: __ZNSt8_Rb_treeIxSt4pairIKxxESt10_Select1stIS2_ESt4lessIxESaIS2_EEC1Ev, symObjAddr: 0x3C8, symBinAddr: 0x100003CA8, symSize: 0x20 }
  - { offsetInCU: 0x26A41, offset: 0x26A41, size: 0x8, addend: 0x0, symName: __ZNSt3mapIxxSt4lessIxESaISt4pairIKxxEEEC1Ev, symObjAddr: 0x3E8, symBinAddr: 0x100003CC8, symSize: 0x20 }
  - { offsetInCU: 0x26AAB, offset: 0x26AAB, size: 0x8, addend: 0x0, symName: __ZNSt8_Rb_treeIxSt4pairIKxxESt10_Select1stIS2_ESt4lessIxESaIS2_EE13_Rb_tree_implIS6_Lb1EED1Ev, symObjAddr: 0x39C, symBinAddr: 0x100003C7C, symSize: 0x2C }
  - { offsetInCU: 0x26AB3, offset: 0x26AB3, size: 0x8, addend: 0x0, symName: __ZNSt8_Rb_treeIxSt4pairIKxxESt10_Select1stIS2_ESt4lessIxESaIS2_EEC1Ev, symObjAddr: 0x3C8, symBinAddr: 0x100003CA8, symSize: 0x20 }
  - { offsetInCU: 0x26AAF, offset: 0x26AAF, size: 0x8, addend: 0x0, symName: __Z1Cxx, symObjAddr: 0x318, symBinAddr: 0x100003BF8, symSize: 0x84 }
  - { offsetInCU: 0x26AB7, offset: 0x26AB7, size: 0x8, addend: 0x0, symName: __ZNSt8_Rb_treeIxSt4pairIKxxESt10_Select1stIS2_ESt4lessIxESaIS2_EE13_Rb_tree_implIS6_Lb1EED1Ev, symObjAddr: 0x39C, symBinAddr: 0x100003C7C, symSize: 0x2C }
  - { offsetInCU: 0x26B3E, offset: 0x26B3E, size: 0x8, addend: 0x0, symName: __Z6_printv, symObjAddr: 0x2F0, symBinAddr: 0x100003BD0, symSize: 0x28 }
  - { offsetInCU: 0x26B46, offset: 0x26B46, size: 0x8, addend: 0x0, symName: __Z1Cxx, symObjAddr: 0x318, symBinAddr: 0x100003BF8, symSize: 0x84 }
  - { offsetInCU: 0x26B5D, offset: 0x26B5D, size: 0x8, addend: 0x0, symName: __Z7__printb, symObjAddr: 0x2A4, symBinAddr: 0x100003B84, symSize: 0x4C }
  - { offsetInCU: 0x26B65, offset: 0x26B65, size: 0x8, addend: 0x0, symName: __Z6_printv, symObjAddr: 0x2F0, symBinAddr: 0x100003BD0, symSize: 0x28 }
  - { offsetInCU: 0x26BC8, offset: 0x26BC8, size: 0x8, addend: 0x0, symName: __Z7__printRKNSt7__cxx1112basic_stringIcSt11char_traitsIcESaIcEEE, symObjAddr: 0x26C, symBinAddr: 0x100003B4C, symSize: 0x38 }
  - { offsetInCU: 0x26BD0, offset: 0x26BD0, size: 0x8, addend: 0x0, symName: __Z7__printb, symObjAddr: 0x2A4, symBinAddr: 0x100003B84, symSize: 0x4C }
  - { offsetInCU: 0x26BCB, offset: 0x26BCB, size: 0x8, addend: 0x0, symName: __Z7__printPKc, symObjAddr: 0x234, symBinAddr: 0x100003B14, symSize: 0x38 }
  - { offsetInCU: 0x26BD3, offset: 0x26BD3, size: 0x8, addend: 0x0, symName: __Z7__printRKNSt7__cxx1112basic_stringIcSt11char_traitsIcESaIcEEE, symObjAddr: 0x26C, symBinAddr: 0x100003B4C, symSize: 0x38 }
  - { offsetInCU: 0x26BFF, offset: 0x26BFF, size: 0x8, addend: 0x0, symName: __Z7__printc, symObjAddr: 0x1FC, symBinAddr: 0x100003ADC, symSize: 0x38 }
  - { offsetInCU: 0x26C07, offset: 0x26C07, size: 0x8, addend: 0x0, symName: __Z7__printPKc, symObjAddr: 0x234, symBinAddr: 0x100003B14, symSize: 0x38 }
  - { offsetInCU: 0x26C35, offset: 0x26C35, size: 0x8, addend: 0x0, symName: __Z7__printe, symObjAddr: 0x1D4, symBinAddr: 0x100003AB4, symSize: 0x28 }
  - { offsetInCU: 0x26C3D, offset: 0x26C3D, size: 0x8, addend: 0x0, symName: __Z7__printc, symObjAddr: 0x1FC, symBinAddr: 0x100003ADC, symSize: 0x38 }
  - { offsetInCU: 0x26C6B, offset: 0x26C6B, size: 0x8, addend: 0x0, symName: __Z7__printd, symObjAddr: 0x1AC, symBinAddr: 0x100003A8C, symSize: 0x28 }
  - { offsetInCU: 0x26C73, offset: 0x26C73, size: 0x8, addend: 0x0, symName: __Z7__printe, symObjAddr: 0x1D4, symBinAddr: 0x100003AB4, symSize: 0x28 }
  - { offsetInCU: 0x26CA1, offset: 0x26CA1, size: 0x8, addend: 0x0, symName: __Z7__printf, symObjAddr: 0x184, symBinAddr: 0x100003A64, symSize: 0x28 }
  - { offsetInCU: 0x26CA9, offset: 0x26CA9, size: 0x8, addend: 0x0, symName: __Z7__printd, symObjAddr: 0x1AC, symBinAddr: 0x100003A8C, symSize: 0x28 }
  - { offsetInCU: 0x26CD7, offset: 0x26CD7, size: 0x8, addend: 0x0, symName: __Z7__printy, symObjAddr: 0x15C, symBinAddr: 0x100003A3C, symSize: 0x28 }
  - { offsetInCU: 0x26CDF, offset: 0x26CDF, size: 0x8, addend: 0x0, symName: __Z7__printf, symObjAddr: 0x184, symBinAddr: 0x100003A64, symSize: 0x28 }
  - { offsetInCU: 0x26D0D, offset: 0x26D0D, size: 0x8, addend: 0x0, symName: __Z7__printm, symObjAddr: 0x134, symBinAddr: 0x100003A14, symSize: 0x28 }
  - { offsetInCU: 0x26D15, offset: 0x26D15, size: 0x8, addend: 0x0, symName: __Z7__printy, symObjAddr: 0x15C, symBinAddr: 0x100003A3C, symSize: 0x28 }
  - { offsetInCU: 0x26D43, offset: 0x26D43, size: 0x8, addend: 0x0, symName: __Z7__printj, symObjAddr: 0x10C, symBinAddr: 0x1000039EC, symSize: 0x28 }
  - { offsetInCU: 0x26D4B, offset: 0x26D4B, size: 0x8, addend: 0x0, symName: __Z7__printm, symObjAddr: 0x134, symBinAddr: 0x100003A14, symSize: 0x28 }
  - { offsetInCU: 0x26D79, offset: 0x26D79, size: 0x8, addend: 0x0, symName: __Z7__printx, symObjAddr: 0xE4, symBinAddr: 0x1000039C4, symSize: 0x28 }
  - { offsetInCU: 0x26D81, offset: 0x26D81, size: 0x8, addend: 0x0, symName: __Z7__printj, symObjAddr: 0x10C, symBinAddr: 0x1000039EC, symSize: 0x28 }
  - { offsetInCU: 0x26DAF, offset: 0x26DAF, size: 0x8, addend: 0x0, symName: __Z7__printl, symObjAddr: 0xBC, symBinAddr: 0x10000399C, symSize: 0x28 }
  - { offsetInCU: 0x26DB7, offset: 0x26DB7, size: 0x8, addend: 0x0, symName: __Z7__printx, symObjAddr: 0xE4, symBinAddr: 0x1000039C4, symSize: 0x28 }
  - { offsetInCU: 0x26DE5, offset: 0x26DE5, size: 0x8, addend: 0x0, symName: __Z7__printi, symObjAddr: 0x94, symBinAddr: 0x100003974, symSize: 0x28 }
  - { offsetInCU: 0x26DED, offset: 0x26DED, size: 0x8, addend: 0x0, symName: __Z7__printl, symObjAddr: 0xBC, symBinAddr: 0x10000399C, symSize: 0x28 }
  - { offsetInCU: 0x26E0B, offset: 0x26E0B, size: 0x8, addend: 0x0, symName: __ZNSt15_Rb_tree_header8_M_resetEv, symObjAddr: 0x58, symBinAddr: 0x100003938, symSize: 0x3C }
  - { offsetInCU: 0x26E13, offset: 0x26E13, size: 0x8, addend: 0x0, symName: __Z7__printi, symObjAddr: 0x94, symBinAddr: 0x100003974, symSize: 0x28 }
  - { offsetInCU: 0x26E6E, offset: 0x26E6E, size: 0x8, addend: 0x0, symName: __ZNSt15_Rb_tree_headerC2Ev, symObjAddr: 0x30, symBinAddr: 0x100003910, symSize: 0x28 }
  - { offsetInCU: 0x26E76, offset: 0x26E76, size: 0x8, addend: 0x0, symName: __ZNSt15_Rb_tree_header8_M_resetEv, symObjAddr: 0x58, symBinAddr: 0x100003938, symSize: 0x3C }
  - { offsetInCU: 0x26E8E, offset: 0x26E8E, size: 0x8, addend: 0x0, symName: __ZdlPvS_, symObjAddr: 0x18, symBinAddr: 0x1000038F8, symSize: 0x18 }
  - { offsetInCU: 0x26E96, offset: 0x26E96, size: 0x8, addend: 0x0, symName: __ZNSt15_Rb_tree_headerC2Ev, symObjAddr: 0x30, symBinAddr: 0x100003910, symSize: 0x28 }
  - { offsetInCU: 0x26ECF, offset: 0x26ECF, size: 0x8, addend: 0x0, symName: __ZnwmPv, symObjAddr: 0x0, symBinAddr: 0x1000038E0, symSize: 0x18 }
  - { offsetInCU: 0x26ED7, offset: 0x26ED7, size: 0x8, addend: 0x0, symName: __ZdlPvS_, symObjAddr: 0x18, symBinAddr: 0x1000038F8, symSize: 0x18 }
...
