---
triple:          'arm64-apple-darwin'
binary-path:     c
relocations:
  - { offsetInCU: 0xAB, offset: 0xAB, size: 0x8, addend: 0x0, symName: __ZnwmPv, symObjAddr: 0x0, symBinAddr: 0x1000038FC, symSize: 0x18 }
  - { offsetInCU: 0xB3, offset: 0xB3, size: 0x8, addend: 0x0, symName: __ZSt19piecewise_construct, symObjAddr: 0x4744, symBinAddr: 0x100008BD8, symSize: 0x0 }
  - { offsetInCU: 0x1913, offset: 0x1913, size: 0x8, addend: 0x0, symName: __ZSt19piecewise_construct, symObjAddr: 0x4744, symBinAddr: 0x100008BD8, symSize: 0x0 }
  - { offsetInCU: 0x1BEB4, offset: 0x1BEB4, size: 0x8, addend: 0x0, symName: __ZStL8__ioinit, symObjAddr: 0x9B670, symBinAddr: 0x100010088, symSize: 0x0 }
  - { offsetInCU: 0x20CC9, offset: 0x20CC9, size: 0x8, addend: 0x0, symName: _qX, symObjAddr: 0x9B678, symBinAddr: 0x100010090, symSize: 0x0 }
  - { offsetInCU: 0x20CE4, offset: 0x20CE4, size: 0x8, addend: 0x0, symName: _qY, symObjAddr: 0x9B690, symBinAddr: 0x1000100A8, symSize: 0x0 }
  - { offsetInCU: 0x20CFF, offset: 0x20CFF, size: 0x8, addend: 0x0, symName: _qZ, symObjAddr: 0x9B6A8, symBinAddr: 0x1000100C0, symSize: 0x0 }
  - { offsetInCU: 0x23815, offset: 0x23815, size: 0x8, addend: 0x0, symName: _cntX, symObjAddr: 0x9B6C0, symBinAddr: 0x1000100D8, symSize: 0x0 }
  - { offsetInCU: 0x23830, offset: 0x23830, size: 0x8, addend: 0x0, symName: _cntY, symObjAddr: 0x9B6F0, symBinAddr: 0x100010108, symSize: 0x0 }
  - { offsetInCU: 0x2384B, offset: 0x2384B, size: 0x8, addend: 0x0, symName: _cntZ, symObjAddr: 0x9B720, symBinAddr: 0x100010138, symSize: 0x0 }
  - { offsetInCU: 0x26356, offset: 0x26356, size: 0x8, addend: 0x0, symName: _cntXY, symObjAddr: 0x9B750, symBinAddr: 0x100010168, symSize: 0x0 }
  - { offsetInCU: 0x28F58, offset: 0x28F58, size: 0x8, addend: 0x0, symName: __ZNSt8__detail30__integer_to_chars_is_unsignedIjEE, symObjAddr: 0x4745, symBinAddr: 0x100008BD9, symSize: 0x0 }
  - { offsetInCU: 0x28F72, offset: 0x28F72, size: 0x8, addend: 0x0, symName: __ZNSt8__detail30__integer_to_chars_is_unsignedImEE, symObjAddr: 0x4746, symBinAddr: 0x100008BDA, symSize: 0x0 }
  - { offsetInCU: 0x28F8C, offset: 0x28F8C, size: 0x8, addend: 0x0, symName: __ZNSt8__detail30__integer_to_chars_is_unsignedIyEE, symObjAddr: 0x4747, symBinAddr: 0x100008BDB, symSize: 0x0 }
  - { offsetInCU: 0x290B7, offset: 0x290B7, size: 0x8, addend: 0x0, symName: __ZNSt8__detail30__integer_to_chars_is_unsignedIoEE, symObjAddr: 0x4748, symBinAddr: 0x100008BDC, symSize: 0x0 }
  - { offsetInCU: 0x2913B, offset: 0x2913B, size: 0x8, addend: 0x0, symName: __GLOBAL__sub_I_c.cpp, symObjAddr: 0x4730, symBinAddr: 0x10000802C, symSize: 0x14 }
  - { offsetInCU: 0x29143, offset: 0x29143, size: 0x8, addend: 0x0, symName: __ZSt19piecewise_construct, symObjAddr: 0x4744, symBinAddr: 0x100008BD8, symSize: 0x0 }
  - { offsetInCU: 0x2918E, offset: 0x2918E, size: 0x8, addend: 0x0, symName: __ZNSt6vectorISt4pairIxxESaIS1_EED1Ev, symObjAddr: 0x46D4, symBinAddr: 0x100007FD0, symSize: 0x5C }
  - { offsetInCU: 0x29196, offset: 0x29196, size: 0x8, addend: 0x0, symName: __GLOBAL__sub_I_c.cpp, symObjAddr: 0x4730, symBinAddr: 0x10000802C, symSize: 0x14 }
  - { offsetInCU: 0x291FD, offset: 0x291FD, size: 0x8, addend: 0x0, symName: __Z41__static_initialization_and_destruction_0v, symObjAddr: 0x4580, symBinAddr: 0x100007E7C, symSize: 0x154 }
  - { offsetInCU: 0x29205, offset: 0x29205, size: 0x8, addend: 0x0, symName: __ZNSt6vectorISt4pairIxxESaIS1_EED1Ev, symObjAddr: 0x46D4, symBinAddr: 0x100007FD0, symSize: 0x5C }
  - { offsetInCU: 0x2924C, offset: 0x2924C, size: 0x8, addend: 0x0, symName: __ZNSt3mapISt4pairIxxExSt4lessIS1_ESaIS0_IKS1_xEEED1Ev, symObjAddr: 0x4560, symBinAddr: 0x100007E5C, symSize: 0x20 }
  - { offsetInCU: 0x29254, offset: 0x29254, size: 0x8, addend: 0x0, symName: __Z41__static_initialization_and_destruction_0v, symObjAddr: 0x4580, symBinAddr: 0x100007E7C, symSize: 0x154 }
  - { offsetInCU: 0x29297, offset: 0x29297, size: 0x8, addend: 0x0, symName: __ZNSt3mapIxxSt4lessIxESaISt4pairIKxxEEED1Ev, symObjAddr: 0x4540, symBinAddr: 0x100007E3C, symSize: 0x20 }
  - { offsetInCU: 0x2929F, offset: 0x2929F, size: 0x8, addend: 0x0, symName: __ZNSt3mapISt4pairIxxExSt4lessIS1_ESaIS0_IKS1_xEEED1Ev, symObjAddr: 0x4560, symBinAddr: 0x100007E5C, symSize: 0x20 }
  - { offsetInCU: 0x29299, offset: 0x29299, size: 0x8, addend: 0x0, symName: __ZNSt10_Head_baseILm0EOSt4pairIxxELb0EE7_M_headERS3_, symObjAddr: 0x4528, symBinAddr: 0x100007E24, symSize: 0x18 }
  - { offsetInCU: 0x292A1, offset: 0x292A1, size: 0x8, addend: 0x0, symName: __ZNSt3mapIxxSt4lessIxESaISt4pairIKxxEEED1Ev, symObjAddr: 0x4540, symBinAddr: 0x100007E3C, symSize: 0x20 }
  - { offsetInCU: 0x292CA, offset: 0x292CA, size: 0x8, addend: 0x0, symName: __ZNSt10_Head_baseILm0ERKxLb0EE7_M_headERS2_, symObjAddr: 0x4510, symBinAddr: 0x100007E0C, symSize: 0x18 }
  - { offsetInCU: 0x292D2, offset: 0x292D2, size: 0x8, addend: 0x0, symName: __ZNSt10_Head_baseILm0EOSt4pairIxxELb0EE7_M_headERS3_, symObjAddr: 0x4528, symBinAddr: 0x100007E24, symSize: 0x18 }
  - { offsetInCU: 0x292FB, offset: 0x292FB, size: 0x8, addend: 0x0, symName: __ZNSt11_Tuple_implILm0EJOSt4pairIxxEEE7_M_headERS3_, symObjAddr: 0x44F4, symBinAddr: 0x100007DF0, symSize: 0x1C }
  - { offsetInCU: 0x29303, offset: 0x29303, size: 0x8, addend: 0x0, symName: __ZNSt10_Head_baseILm0ERKxLb0EE7_M_headERS2_, symObjAddr: 0x4510, symBinAddr: 0x100007E0C, symSize: 0x18 }
  - { offsetInCU: 0x2932D, offset: 0x2932D, size: 0x8, addend: 0x0, symName: __ZNSt11_Tuple_implILm0EJRKxEE7_M_headERS2_, symObjAddr: 0x44D8, symBinAddr: 0x100007DD4, symSize: 0x1C }
  - { offsetInCU: 0x29335, offset: 0x29335, size: 0x8, addend: 0x0, symName: __ZNSt11_Tuple_implILm0EJOSt4pairIxxEEE7_M_headERS3_, symObjAddr: 0x44F4, symBinAddr: 0x100007DF0, symSize: 0x1C }
  - { offsetInCU: 0x293EA, offset: 0x293EA, size: 0x8, addend: 0x0, symName: __ZSt12__get_helperILm0EOSt4pairIxxEJEERT0_RSt11_Tuple_implIXT_EJS3_DpT1_EE, symObjAddr: 0x44BC, symBinAddr: 0x100007DB8, symSize: 0x1C }
  - { offsetInCU: 0x293F2, offset: 0x293F2, size: 0x8, addend: 0x0, symName: __ZNSt11_Tuple_implILm0EJRKxEE7_M_headERS2_, symObjAddr: 0x44D8, symBinAddr: 0x100007DD4, symSize: 0x1C }
  - { offsetInCU: 0x2942B, offset: 0x2942B, size: 0x8, addend: 0x0, symName: __ZSt12__get_helperILm0ERKxJEERT0_RSt11_Tuple_implIXT_EJS2_DpT1_EE, symObjAddr: 0x44A0, symBinAddr: 0x100007D9C, symSize: 0x1C }
  - { offsetInCU: 0x29433, offset: 0x29433, size: 0x8, addend: 0x0, symName: __ZSt12__get_helperILm0EOSt4pairIxxEJEERT0_RSt11_Tuple_implIXT_EJS3_DpT1_EE, symObjAddr: 0x44BC, symBinAddr: 0x100007DB8, symSize: 0x1C }
  - { offsetInCU: 0x29493, offset: 0x29493, size: 0x8, addend: 0x0, symName: __ZSt7forwardIOSt4pairIxxEEOT_RNSt16remove_referenceIS3_E4typeE, symObjAddr: 0x448C, symBinAddr: 0x100007D88, symSize: 0x14 }
  - { offsetInCU: 0x2949B, offset: 0x2949B, size: 0x8, addend: 0x0, symName: __ZSt12__get_helperILm0ERKxJEERT0_RSt11_Tuple_implIXT_EJS2_DpT1_EE, symObjAddr: 0x44A0, symBinAddr: 0x100007D9C, symSize: 0x1C }
  - { offsetInCU: 0x294F9, offset: 0x294F9, size: 0x8, addend: 0x0, symName: __ZSt3getILm0EJOSt4pairIxxEEERNSt13tuple_elementIXT_ESt5tupleIJDpT0_EEE4typeERS7_, symObjAddr: 0x4470, symBinAddr: 0x100007D6C, symSize: 0x1C }
  - { offsetInCU: 0x29501, offset: 0x29501, size: 0x8, addend: 0x0, symName: __ZSt7forwardIOSt4pairIxxEEOT_RNSt16remove_referenceIS3_E4typeE, symObjAddr: 0x448C, symBinAddr: 0x100007D88, symSize: 0x14 }
  - { offsetInCU: 0x29525, offset: 0x29525, size: 0x8, addend: 0x0, symName: __ZSt7forwardIRKxEOT_RNSt16remove_referenceIS2_E4typeE, symObjAddr: 0x445C, symBinAddr: 0x100007D58, symSize: 0x14 }
  - { offsetInCU: 0x2952D, offset: 0x2952D, size: 0x8, addend: 0x0, symName: __ZSt3getILm0EJOSt4pairIxxEEERNSt13tuple_elementIXT_ESt5tupleIJDpT0_EEE4typeERS7_, symObjAddr: 0x4470, symBinAddr: 0x100007D6C, symSize: 0x1C }
  - { offsetInCU: 0x2958B, offset: 0x2958B, size: 0x8, addend: 0x0, symName: __ZSt3getILm0EJRKxEERNSt13tuple_elementIXT_ESt5tupleIJDpT0_EEE4typeERS6_, symObjAddr: 0x4440, symBinAddr: 0x100007D3C, symSize: 0x1C }
  - { offsetInCU: 0x29593, offset: 0x29593, size: 0x8, addend: 0x0, symName: __ZSt7forwardIRKxEOT_RNSt16remove_referenceIS2_E4typeE, symObjAddr: 0x445C, symBinAddr: 0x100007D58, symSize: 0x14 }
  - { offsetInCU: 0x2966A, offset: 0x2966A, size: 0x8, addend: 0x0, symName: __ZNSt4pairIKS_IxxExEC1IJOS0_EJLm0EEJEJEEERSt5tupleIJDpT_EERS5_IJDpT1_EESt12_Index_tupleIJXspT0_EEESE_IJXspT2_EEE, symObjAddr: 0x43F8, symBinAddr: 0x100007CF4, symSize: 0x48 }
  - { offsetInCU: 0x29672, offset: 0x29672, size: 0x8, addend: 0x0, symName: __ZSt3getILm0EJRKxEERNSt13tuple_elementIXT_ESt5tupleIJDpT0_EEE4typeERS6_, symObjAddr: 0x4440, symBinAddr: 0x100007D3C, symSize: 0x1C }
  - { offsetInCU: 0x2976E, offset: 0x2976E, size: 0x8, addend: 0x0, symName: __ZNSt4pairIKxxEC1IJRS0_EJLm0EEJEJEEERSt5tupleIJDpT_EERS4_IJDpT1_EESt12_Index_tupleIJXspT0_EEESD_IJXspT2_EEE, symObjAddr: 0x43B0, symBinAddr: 0x100007CAC, symSize: 0x48 }
  - { offsetInCU: 0x29776, offset: 0x29776, size: 0x8, addend: 0x0, symName: __ZNSt4pairIKS_IxxExEC1IJOS0_EJLm0EEJEJEEERSt5tupleIJDpT_EERS5_IJDpT1_EESt12_Index_tupleIJXspT0_EEESE_IJXspT2_EEE, symObjAddr: 0x43F8, symBinAddr: 0x100007CF4, symSize: 0x48 }
  - { offsetInCU: 0x2983E, offset: 0x2983E, size: 0x8, addend: 0x0, symName: __ZNSt4pairIKS_IxxExEC1IJOS0_EJEEESt21piecewise_construct_tSt5tupleIJDpT_EES6_IJDpT0_EE, symObjAddr: 0x4374, symBinAddr: 0x100007C70, symSize: 0x3C }
  - { offsetInCU: 0x29846, offset: 0x29846, size: 0x8, addend: 0x0, symName: __ZNSt4pairIKxxEC1IJRS0_EJLm0EEJEJEEERSt5tupleIJDpT_EERS4_IJDpT1_EESt12_Index_tupleIJXspT0_EEESD_IJXspT2_EEE, symObjAddr: 0x43B0, symBinAddr: 0x100007CAC, symSize: 0x48 }
  - { offsetInCU: 0x298A6, offset: 0x298A6, size: 0x8, addend: 0x0, symName: __ZNSt11_Tuple_implILm0EJOSt4pairIxxEEEC2EOS3_, symObjAddr: 0x434C, symBinAddr: 0x100007C48, symSize: 0x28 }
  - { offsetInCU: 0x298AE, offset: 0x298AE, size: 0x8, addend: 0x0, symName: __ZNSt4pairIKS_IxxExEC1IJOS0_EJEEESt21piecewise_construct_tSt5tupleIJDpT_EES6_IJDpT0_EE, symObjAddr: 0x4374, symBinAddr: 0x100007C70, symSize: 0x3C }
  - { offsetInCU: 0x29975, offset: 0x29975, size: 0x8, addend: 0x0, symName: __ZNSt4pairIKxxEC1IJRS0_EJEEESt21piecewise_construct_tSt5tupleIJDpT_EES5_IJDpT0_EE, symObjAddr: 0x4310, symBinAddr: 0x100007C0C, symSize: 0x3C }
  - { offsetInCU: 0x2997D, offset: 0x2997D, size: 0x8, addend: 0x0, symName: __ZNSt11_Tuple_implILm0EJOSt4pairIxxEEEC2EOS3_, symObjAddr: 0x434C, symBinAddr: 0x100007C48, symSize: 0x28 }
  - { offsetInCU: 0x299D9, offset: 0x299D9, size: 0x8, addend: 0x0, symName: __ZNSt11_Tuple_implILm0EJRKxEEC2EOS2_, symObjAddr: 0x42E8, symBinAddr: 0x100007BE4, symSize: 0x28 }
  - { offsetInCU: 0x299E1, offset: 0x299E1, size: 0x8, addend: 0x0, symName: __ZNSt4pairIKxxEC1IJRS0_EJEEESt21piecewise_construct_tSt5tupleIJDpT_EES5_IJDpT0_EE, symObjAddr: 0x4310, symBinAddr: 0x100007C0C, symSize: 0x3C }
  - { offsetInCU: 0x29A25, offset: 0x29A25, size: 0x8, addend: 0x0, symName: __ZNK9__gnu_cxx16__aligned_membufISt4pairIKS1_IxxExEE7_M_addrEv, symObjAddr: 0x42D4, symBinAddr: 0x100007BD0, symSize: 0x14 }
  - { offsetInCU: 0x29A2D, offset: 0x29A2D, size: 0x8, addend: 0x0, symName: __ZNSt11_Tuple_implILm0EJRKxEEC2EOS2_, symObjAddr: 0x42E8, symBinAddr: 0x100007BE4, symSize: 0x28 }
  - { offsetInCU: 0x29B29, offset: 0x29B29, size: 0x8, addend: 0x0, symName: __ZNSt5tupleIJOSt4pairIxxEEEC1EOS3_, symObjAddr: 0x42AC, symBinAddr: 0x100007BA8, symSize: 0x28 }
  - { offsetInCU: 0x29B31, offset: 0x29B31, size: 0x8, addend: 0x0, symName: __ZNK9__gnu_cxx16__aligned_membufISt4pairIKS1_IxxExEE7_M_addrEv, symObjAddr: 0x42D4, symBinAddr: 0x100007BD0, symSize: 0x14 }
  - { offsetInCU: 0x29B40, offset: 0x29B40, size: 0x8, addend: 0x0, symName: __ZNSt15__new_allocatorISt13_Rb_tree_nodeISt4pairIKS1_IxxExEEE8allocateEmPKv, symObjAddr: 0x420C, symBinAddr: 0x100007B08, symSize: 0xA0 }
  - { offsetInCU: 0x29B48, offset: 0x29B48, size: 0x8, addend: 0x0, symName: __ZNSt5tupleIJOSt4pairIxxEEEC1EOS3_, symObjAddr: 0x42AC, symBinAddr: 0x100007BA8, symSize: 0x28 }
  - { offsetInCU: 0x29BCE, offset: 0x29BCE, size: 0x8, addend: 0x0, symName: __ZNK9__gnu_cxx16__aligned_membufISt4pairIKxxEE7_M_addrEv, symObjAddr: 0x41F8, symBinAddr: 0x100007AF4, symSize: 0x14 }
  - { offsetInCU: 0x29BD6, offset: 0x29BD6, size: 0x8, addend: 0x0, symName: __ZNSt15__new_allocatorISt13_Rb_tree_nodeISt4pairIKS1_IxxExEEE8allocateEmPKv, symObjAddr: 0x420C, symBinAddr: 0x100007B08, symSize: 0xA0 }
  - { offsetInCU: 0x29CB5, offset: 0x29CB5, size: 0x8, addend: 0x0, symName: __ZNSt5tupleIJRKxEEC1EOS2_, symObjAddr: 0x41D0, symBinAddr: 0x100007ACC, symSize: 0x28 }
  - { offsetInCU: 0x29CBD, offset: 0x29CBD, size: 0x8, addend: 0x0, symName: __ZNK9__gnu_cxx16__aligned_membufISt4pairIKxxEE7_M_addrEv, symObjAddr: 0x41F8, symBinAddr: 0x100007AF4, symSize: 0x14 }
  - { offsetInCU: 0x29CD5, offset: 0x29CD5, size: 0x8, addend: 0x0, symName: __ZNSt15__new_allocatorISt13_Rb_tree_nodeISt4pairIKxxEEE8allocateEmPKv, symObjAddr: 0x4140, symBinAddr: 0x100007A3C, symSize: 0x90 }
  - { offsetInCU: 0x29CDD, offset: 0x29CDD, size: 0x8, addend: 0x0, symName: __ZNSt5tupleIJRKxEEC1EOS2_, symObjAddr: 0x41D0, symBinAddr: 0x100007ACC, symSize: 0x28 }
  - { offsetInCU: 0x29E3E, offset: 0x29E3E, size: 0x8, addend: 0x0, symName: __ZSt19__relocate_object_aISt4pairIxxES1_SaIS1_EEvPT_PT0_RT1_, symObjAddr: 0x407C, symBinAddr: 0x100007978, symSize: 0xC4 }
  - { offsetInCU: 0x29E46, offset: 0x29E46, size: 0x8, addend: 0x0, symName: __ZNSt15__new_allocatorISt13_Rb_tree_nodeISt4pairIKxxEEE8allocateEmPKv, symObjAddr: 0x4140, symBinAddr: 0x100007A3C, symSize: 0x90 }
  - { offsetInCU: 0x29F2A, offset: 0x29F2A, size: 0x8, addend: 0x0, symName: __ZSt11__addressofISt4pairIxxEEPT_RS2_, symObjAddr: 0x4068, symBinAddr: 0x100007964, symSize: 0x14 }
  - { offsetInCU: 0x29F32, offset: 0x29F32, size: 0x8, addend: 0x0, symName: __ZSt19__relocate_object_aISt4pairIxxES1_SaIS1_EEvPT_PT0_RT1_, symObjAddr: 0x407C, symBinAddr: 0x100007978, symSize: 0xC4 }
  - { offsetInCU: 0x29F49, offset: 0x29F49, size: 0x8, addend: 0x0, symName: __ZNK9__gnu_cxx16__aligned_membufISt4pairIKS1_IxxExEE6_M_ptrEv, symObjAddr: 0x404C, symBinAddr: 0x100007948, symSize: 0x1C }
  - { offsetInCU: 0x29F51, offset: 0x29F51, size: 0x8, addend: 0x0, symName: __ZSt11__addressofISt4pairIxxEEPT_RS2_, symObjAddr: 0x4068, symBinAddr: 0x100007964, symSize: 0x14 }
  - { offsetInCU: 0x2A03E, offset: 0x2A03E, size: 0x8, addend: 0x0, symName: __ZSt7forwardIRPSt13_Rb_tree_nodeISt4pairIKS1_IxxExEEEOT_RNSt16remove_referenceIS8_E4typeE, symObjAddr: 0x4038, symBinAddr: 0x100007934, symSize: 0x14 }
  - { offsetInCU: 0x2A046, offset: 0x2A046, size: 0x8, addend: 0x0, symName: __ZNK9__gnu_cxx16__aligned_membufISt4pairIKS1_IxxExEE6_M_ptrEv, symObjAddr: 0x404C, symBinAddr: 0x100007948, symSize: 0x1C }
  - { offsetInCU: 0x2A080, offset: 0x2A080, size: 0x8, addend: 0x0, symName: __ZNK9__gnu_cxx16__aligned_membufISt4pairIKxxEE6_M_ptrEv, symObjAddr: 0x401C, symBinAddr: 0x100007918, symSize: 0x1C }
  - { offsetInCU: 0x2A088, offset: 0x2A088, size: 0x8, addend: 0x0, symName: __ZSt7forwardIRPSt13_Rb_tree_nodeISt4pairIKS1_IxxExEEEOT_RNSt16remove_referenceIS8_E4typeE, symObjAddr: 0x4038, symBinAddr: 0x100007934, symSize: 0x14 }
  - { offsetInCU: 0x2A155, offset: 0x2A155, size: 0x8, addend: 0x0, symName: __ZSt7forwardIRPSt13_Rb_tree_nodeISt4pairIKxxEEEOT_RNSt16remove_referenceIS7_E4typeE, symObjAddr: 0x4008, symBinAddr: 0x100007904, symSize: 0x14 }
  - { offsetInCU: 0x2A15D, offset: 0x2A15D, size: 0x8, addend: 0x0, symName: __ZNK9__gnu_cxx16__aligned_membufISt4pairIKxxEE6_M_ptrEv, symObjAddr: 0x401C, symBinAddr: 0x100007918, symSize: 0x1C }
  - { offsetInCU: 0x2A1B7, offset: 0x2A1B7, size: 0x8, addend: 0x0, symName: __ZNSt12_Destroy_auxILb1EE9__destroyIPSt4pairIxxEEEvT_S5_, symObjAddr: 0x3FF0, symBinAddr: 0x1000078EC, symSize: 0x18 }
  - { offsetInCU: 0x2A1BF, offset: 0x2A1BF, size: 0x8, addend: 0x0, symName: __ZSt7forwardIRPSt13_Rb_tree_nodeISt4pairIKxxEEEOT_RNSt16remove_referenceIS7_E4typeE, symObjAddr: 0x4008, symBinAddr: 0x100007904, symSize: 0x14 }
  - { offsetInCU: 0x2A2DB, offset: 0x2A2DB, size: 0x8, addend: 0x0, symName: __ZSt14__relocate_a_1IPSt4pairIxxES2_SaIS1_EET0_T_S5_S4_RT1_, symObjAddr: 0x3F6C, symBinAddr: 0x100007868, symSize: 0x84 }
  - { offsetInCU: 0x2A2E3, offset: 0x2A2E3, size: 0x8, addend: 0x0, symName: __ZNSt12_Destroy_auxILb1EE9__destroyIPSt4pairIxxEEEvT_S5_, symObjAddr: 0x3FF0, symBinAddr: 0x1000078EC, symSize: 0x18 }
  - { offsetInCU: 0x2A315, offset: 0x2A315, size: 0x8, addend: 0x0, symName: __ZSt12__niter_baseIPSt4pairIxxEET_S3_, symObjAddr: 0x3F58, symBinAddr: 0x100007854, symSize: 0x14 }
  - { offsetInCU: 0x2A31D, offset: 0x2A31D, size: 0x8, addend: 0x0, symName: __ZSt14__relocate_a_1IPSt4pairIxxES2_SaIS1_EET0_T_S5_S4_RT1_, symObjAddr: 0x3F6C, symBinAddr: 0x100007868, symSize: 0x84 }
  - { offsetInCU: 0x2A2FF, offset: 0x2A2FF, size: 0x8, addend: 0x0, symName: __ZNSt15__new_allocatorISt4pairIxxEE8allocateEmPKv, symObjAddr: 0x3EDC, symBinAddr: 0x1000077D8, symSize: 0x7C }
  - { offsetInCU: 0x2A307, offset: 0x2A307, size: 0x8, addend: 0x0, symName: __ZSt12__niter_baseIPSt4pairIxxEET_S3_, symObjAddr: 0x3F58, symBinAddr: 0x100007854, symSize: 0x14 }
  - { offsetInCU: 0x2A388, offset: 0x2A388, size: 0x8, addend: 0x0, symName: __ZNKSt12_Vector_baseISt4pairIxxESaIS1_EE19_M_get_Tp_allocatorEv, symObjAddr: 0x3EC8, symBinAddr: 0x1000077C4, symSize: 0x14 }
  - { offsetInCU: 0x2A390, offset: 0x2A390, size: 0x8, addend: 0x0, symName: __ZNSt15__new_allocatorISt4pairIxxEE8allocateEmPKv, symObjAddr: 0x3EDC, symBinAddr: 0x1000077D8, symSize: 0x7C }
  - { offsetInCU: 0x2A3B7, offset: 0x2A3B7, size: 0x8, addend: 0x0, symName: __ZNSt6vectorISt4pairIxxESaIS1_EE11_S_max_sizeERKS2_, symObjAddr: 0x3E74, symBinAddr: 0x100007770, symSize: 0x54 }
  - { offsetInCU: 0x2A3BF, offset: 0x2A3BF, size: 0x8, addend: 0x0, symName: __ZNKSt12_Vector_baseISt4pairIxxESaIS1_EE19_M_get_Tp_allocatorEv, symObjAddr: 0x3EC8, symBinAddr: 0x1000077C4, symSize: 0x14 }
  - { offsetInCU: 0x2A485, offset: 0x2A485, size: 0x8, addend: 0x0, symName: __ZNSt15__new_allocatorISt13_Rb_tree_nodeISt4pairIKS1_IxxExEEE10deallocateEPS5_m, symObjAddr: 0x3E38, symBinAddr: 0x100007734, symSize: 0x3C }
  - { offsetInCU: 0x2A48D, offset: 0x2A48D, size: 0x8, addend: 0x0, symName: __ZNSt6vectorISt4pairIxxESaIS1_EE11_S_max_sizeERKS2_, symObjAddr: 0x3E74, symBinAddr: 0x100007770, symSize: 0x54 }
  - { offsetInCU: 0x2A511, offset: 0x2A511, size: 0x8, addend: 0x0, symName: __ZNSt15__new_allocatorISt13_Rb_tree_nodeISt4pairIKxxEEE10deallocateEPS4_m, symObjAddr: 0x3DFC, symBinAddr: 0x1000076F8, symSize: 0x3C }
  - { offsetInCU: 0x2A519, offset: 0x2A519, size: 0x8, addend: 0x0, symName: __ZNSt15__new_allocatorISt13_Rb_tree_nodeISt4pairIKS1_IxxExEEE10deallocateEPS5_m, symObjAddr: 0x3E38, symBinAddr: 0x100007734, symSize: 0x3C }
  - { offsetInCU: 0x2A59D, offset: 0x2A59D, size: 0x8, addend: 0x0, symName: __ZNKSt10_Select1stISt4pairIKS0_IxxExEEclERKS3_, symObjAddr: 0x3DE4, symBinAddr: 0x1000076E0, symSize: 0x18 }
  - { offsetInCU: 0x2A5A5, offset: 0x2A5A5, size: 0x8, addend: 0x0, symName: __ZNSt15__new_allocatorISt13_Rb_tree_nodeISt4pairIKxxEEE10deallocateEPS4_m, symObjAddr: 0x3DFC, symBinAddr: 0x1000076F8, symSize: 0x3C }
  - { offsetInCU: 0x2A5E0, offset: 0x2A5E0, size: 0x8, addend: 0x0, symName: __ZNKSt13_Rb_tree_nodeISt4pairIKS0_IxxExEE9_M_valptrEv, symObjAddr: 0x3DC4, symBinAddr: 0x1000076C0, symSize: 0x20 }
  - { offsetInCU: 0x2A5E8, offset: 0x2A5E8, size: 0x8, addend: 0x0, symName: __ZNKSt10_Select1stISt4pairIKS0_IxxExEEclERKS3_, symObjAddr: 0x3DE4, symBinAddr: 0x1000076E0, symSize: 0x18 }
  - { offsetInCU: 0x2A6C0, offset: 0x2A6C0, size: 0x8, addend: 0x0, symName: __ZNSt4pairIPSt18_Rb_tree_node_baseS1_EC1IRPSt13_Rb_tree_nodeIS_IKS_IxxExEERS1_Lb1EEEOT_OT0_, symObjAddr: 0x3D7C, symBinAddr: 0x100007678, symSize: 0x48 }
  - { offsetInCU: 0x2A6C8, offset: 0x2A6C8, size: 0x8, addend: 0x0, symName: __ZNKSt13_Rb_tree_nodeISt4pairIKS0_IxxExEE9_M_valptrEv, symObjAddr: 0x3DC4, symBinAddr: 0x1000076C0, symSize: 0x20 }
  - { offsetInCU: 0x2A6C4, offset: 0x2A6C4, size: 0x8, addend: 0x0, symName: __ZNSt8_Rb_treeISt4pairIxxES0_IKS1_xESt10_Select1stIS3_ESt4lessIS1_ESaIS3_EE5beginEv, symObjAddr: 0x3D54, symBinAddr: 0x100007650, symSize: 0x28 }
  - { offsetInCU: 0x2A6CC, offset: 0x2A6CC, size: 0x8, addend: 0x0, symName: __ZNSt4pairIPSt18_Rb_tree_node_baseS1_EC1IRPSt13_Rb_tree_nodeIS_IKS_IxxExEERS1_Lb1EEEOT_OT0_, symObjAddr: 0x3D7C, symBinAddr: 0x100007678, symSize: 0x48 }
  - { offsetInCU: 0x2A6F3, offset: 0x2A6F3, size: 0x8, addend: 0x0, symName: __ZNSt8_Rb_treeISt4pairIxxES0_IKS1_xESt10_Select1stIS3_ESt4lessIS1_ESaIS3_EE17_M_construct_nodeIJRKSt21piecewise_construct_tSt5tupleIJOS1_EESE_IJEEEEEvPSt13_Rb_tree_nodeIS3_EDpOT_, symObjAddr: 0x3BD8, symBinAddr: 0x1000074D4, symSize: 0x17C }
  - { offsetInCU: 0x2A6FB, offset: 0x2A6FB, size: 0x8, addend: 0x0, symName: __ZNSt8_Rb_treeISt4pairIxxES0_IKS1_xESt10_Select1stIS3_ESt4lessIS1_ESaIS3_EE5beginEv, symObjAddr: 0x3D54, symBinAddr: 0x100007650, symSize: 0x28 }
  - { offsetInCU: 0x2A838, offset: 0x2A838, size: 0x8, addend: 0x0, symName: __ZNSt8_Rb_treeISt4pairIxxES0_IKS1_xESt10_Select1stIS3_ESt4lessIS1_ESaIS3_EE11_M_get_nodeEv, symObjAddr: 0x3B9C, symBinAddr: 0x100007498, symSize: 0x3C }
  - { offsetInCU: 0x2A840, offset: 0x2A840, size: 0x8, addend: 0x0, symName: __ZNSt8_Rb_treeISt4pairIxxES0_IKS1_xESt10_Select1stIS3_ESt4lessIS1_ESaIS3_EE17_M_construct_nodeIJRKSt21piecewise_construct_tSt5tupleIJOS1_EESE_IJEEEEEvPSt13_Rb_tree_nodeIS3_EDpOT_, symObjAddr: 0x3BD8, symBinAddr: 0x1000074D4, symSize: 0x17C }
  - { offsetInCU: 0x2A903, offset: 0x2A903, size: 0x8, addend: 0x0, symName: __ZNSt10_Head_baseILm0EOSt4pairIxxELb0EEC2IS1_EEOT_, symObjAddr: 0x3B6C, symBinAddr: 0x100007468, symSize: 0x30 }
  - { offsetInCU: 0x2A90B, offset: 0x2A90B, size: 0x8, addend: 0x0, symName: __ZNSt8_Rb_treeISt4pairIxxES0_IKS1_xESt10_Select1stIS3_ESt4lessIS1_ESaIS3_EE11_M_get_nodeEv, symObjAddr: 0x3B9C, symBinAddr: 0x100007498, symSize: 0x3C }
  - { offsetInCU: 0x2A91C, offset: 0x2A91C, size: 0x8, addend: 0x0, symName: __ZN9__gnu_cxx16__aligned_membufISt4pairIKS1_IxxExEE7_M_addrEv, symObjAddr: 0x3B58, symBinAddr: 0x100007454, symSize: 0x14 }
  - { offsetInCU: 0x2A924, offset: 0x2A924, size: 0x8, addend: 0x0, symName: __ZNSt10_Head_baseILm0EOSt4pairIxxELb0EEC2IS1_EEOT_, symObjAddr: 0x3B6C, symBinAddr: 0x100007468, symSize: 0x30 }
  - { offsetInCU: 0x2A94E, offset: 0x2A94E, size: 0x8, addend: 0x0, symName: __ZNKSt10_Select1stISt4pairIKxxEEclERKS2_, symObjAddr: 0x3B40, symBinAddr: 0x10000743C, symSize: 0x18 }
  - { offsetInCU: 0x2A956, offset: 0x2A956, size: 0x8, addend: 0x0, symName: __ZN9__gnu_cxx16__aligned_membufISt4pairIKS1_IxxExEE7_M_addrEv, symObjAddr: 0x3B58, symBinAddr: 0x100007454, symSize: 0x14 }
  - { offsetInCU: 0x2A991, offset: 0x2A991, size: 0x8, addend: 0x0, symName: __ZNKSt13_Rb_tree_nodeISt4pairIKxxEE9_M_valptrEv, symObjAddr: 0x3B20, symBinAddr: 0x10000741C, symSize: 0x20 }
  - { offsetInCU: 0x2A999, offset: 0x2A999, size: 0x8, addend: 0x0, symName: __ZNKSt10_Select1stISt4pairIKxxEEclERKS2_, symObjAddr: 0x3B40, symBinAddr: 0x10000743C, symSize: 0x18 }
  - { offsetInCU: 0x2AA32, offset: 0x2AA32, size: 0x8, addend: 0x0, symName: __ZSt7forwardIRPSt18_Rb_tree_node_baseEOT_RNSt16remove_referenceIS3_E4typeE, symObjAddr: 0x3B0C, symBinAddr: 0x100007408, symSize: 0x14 }
  - { offsetInCU: 0x2AA3A, offset: 0x2AA3A, size: 0x8, addend: 0x0, symName: __ZNKSt13_Rb_tree_nodeISt4pairIKxxEE9_M_valptrEv, symObjAddr: 0x3B20, symBinAddr: 0x10000741C, symSize: 0x20 }
  - { offsetInCU: 0x2AAC0, offset: 0x2AAC0, size: 0x8, addend: 0x0, symName: __ZNSt4pairIPSt18_Rb_tree_node_baseS1_EC1IRPSt13_Rb_tree_nodeIS_IKxxEERS1_Lb1EEEOT_OT0_, symObjAddr: 0x3AC4, symBinAddr: 0x1000073C0, symSize: 0x48 }
  - { offsetInCU: 0x2AAC8, offset: 0x2AAC8, size: 0x8, addend: 0x0, symName: __ZSt7forwardIRPSt18_Rb_tree_node_baseEOT_RNSt16remove_referenceIS3_E4typeE, symObjAddr: 0x3B0C, symBinAddr: 0x100007408, symSize: 0x14 }
  - { offsetInCU: 0x2AAC9, offset: 0x2AAC9, size: 0x8, addend: 0x0, symName: __ZNSt8_Rb_treeIxSt4pairIKxxESt10_Select1stIS2_ESt4lessIxESaIS2_EE5beginEv, symObjAddr: 0x3A9C, symBinAddr: 0x100007398, symSize: 0x28 }
  - { offsetInCU: 0x2AAD1, offset: 0x2AAD1, size: 0x8, addend: 0x0, symName: __ZNSt4pairIPSt18_Rb_tree_node_baseS1_EC1IRPSt13_Rb_tree_nodeIS_IKxxEERS1_Lb1EEEOT_OT0_, symObjAddr: 0x3AC4, symBinAddr: 0x1000073C0, symSize: 0x48 }
  - { offsetInCU: 0x2AAF8, offset: 0x2AAF8, size: 0x8, addend: 0x0, symName: __ZNSt8_Rb_treeIxSt4pairIKxxESt10_Select1stIS2_ESt4lessIxESaIS2_EE17_M_construct_nodeIJRKSt21piecewise_construct_tSt5tupleIJRS1_EESD_IJEEEEEvPSt13_Rb_tree_nodeIS2_EDpOT_, symObjAddr: 0x3920, symBinAddr: 0x10000721C, symSize: 0x17C }
  - { offsetInCU: 0x2AB00, offset: 0x2AB00, size: 0x8, addend: 0x0, symName: __ZNSt8_Rb_treeIxSt4pairIKxxESt10_Select1stIS2_ESt4lessIxESaIS2_EE5beginEv, symObjAddr: 0x3A9C, symBinAddr: 0x100007398, symSize: 0x28 }
  - { offsetInCU: 0x2AC3D, offset: 0x2AC3D, size: 0x8, addend: 0x0, symName: __ZNSt8_Rb_treeIxSt4pairIKxxESt10_Select1stIS2_ESt4lessIxESaIS2_EE11_M_get_nodeEv, symObjAddr: 0x38E4, symBinAddr: 0x1000071E0, symSize: 0x3C }
  - { offsetInCU: 0x2AC45, offset: 0x2AC45, size: 0x8, addend: 0x0, symName: __ZNSt8_Rb_treeIxSt4pairIKxxESt10_Select1stIS2_ESt4lessIxESaIS2_EE17_M_construct_nodeIJRKSt21piecewise_construct_tSt5tupleIJRS1_EESD_IJEEEEEvPSt13_Rb_tree_nodeIS2_EDpOT_, symObjAddr: 0x3920, symBinAddr: 0x10000721C, symSize: 0x17C }
  - { offsetInCU: 0x2ACA3, offset: 0x2ACA3, size: 0x8, addend: 0x0, symName: __ZN9__gnu_cxx16__aligned_membufISt4pairIKxxEE7_M_addrEv, symObjAddr: 0x38D0, symBinAddr: 0x1000071CC, symSize: 0x14 }
  - { offsetInCU: 0x2ACAB, offset: 0x2ACAB, size: 0x8, addend: 0x0, symName: __ZNSt8_Rb_treeIxSt4pairIKxxESt10_Select1stIS2_ESt4lessIxESaIS2_EE11_M_get_nodeEv, symObjAddr: 0x38E4, symBinAddr: 0x1000071E0, symSize: 0x3C }
  - { offsetInCU: 0x2AD2A, offset: 0x2AD2A, size: 0x8, addend: 0x0, symName: __ZSt8_DestroyIPSt4pairIxxEEvT_S3_, symObjAddr: 0x38A8, symBinAddr: 0x1000071A4, symSize: 0x28 }
  - { offsetInCU: 0x2AD32, offset: 0x2AD32, size: 0x8, addend: 0x0, symName: __ZN9__gnu_cxx16__aligned_membufISt4pairIKxxEE7_M_addrEv, symObjAddr: 0x38D0, symBinAddr: 0x1000071CC, symSize: 0x14 }
  - { offsetInCU: 0x2AE3D, offset: 0x2AE3D, size: 0x8, addend: 0x0, symName: __ZSt12__relocate_aIPSt4pairIxxES2_SaIS1_EET0_T_S5_S4_RT1_, symObjAddr: 0x384C, symBinAddr: 0x100007148, symSize: 0x5C }
  - { offsetInCU: 0x2AE45, offset: 0x2AE45, size: 0x8, addend: 0x0, symName: __ZSt8_DestroyIPSt4pairIxxEEvT_S3_, symObjAddr: 0x38A8, symBinAddr: 0x1000071A4, symSize: 0x28 }
  - { offsetInCU: 0x2AE31, offset: 0x2AE31, size: 0x8, addend: 0x0, symName: __ZNKSt6vectorISt4pairIxxESaIS1_EE4sizeEv, symObjAddr: 0x3824, symBinAddr: 0x100007120, symSize: 0x28 }
  - { offsetInCU: 0x2AE39, offset: 0x2AE39, size: 0x8, addend: 0x0, symName: __ZSt12__relocate_aIPSt4pairIxxES2_SaIS1_EET0_T_S5_S4_RT1_, symObjAddr: 0x384C, symBinAddr: 0x100007148, symSize: 0x5C }
  - { offsetInCU: 0x2AE60, offset: 0x2AE60, size: 0x8, addend: 0x0, symName: __ZNKSt6vectorISt4pairIxxESaIS1_EE8max_sizeEv, symObjAddr: 0x3804, symBinAddr: 0x100007100, symSize: 0x20 }
  - { offsetInCU: 0x2AE68, offset: 0x2AE68, size: 0x8, addend: 0x0, symName: __ZNKSt6vectorISt4pairIxxESaIS1_EE4sizeEv, symObjAddr: 0x3824, symBinAddr: 0x100007120, symSize: 0x28 }
  - { offsetInCU: 0x2AF07, offset: 0x2AF07, size: 0x8, addend: 0x0, symName: __ZNSt8_Rb_treeISt4pairIxxES0_IKS1_xESt10_Select1stIS3_ESt4lessIS1_ESaIS3_EE21_M_get_Node_allocatorEv, symObjAddr: 0x37F0, symBinAddr: 0x1000070EC, symSize: 0x14 }
  - { offsetInCU: 0x2AF0F, offset: 0x2AF0F, size: 0x8, addend: 0x0, symName: __ZNKSt6vectorISt4pairIxxESaIS1_EE8max_sizeEv, symObjAddr: 0x3804, symBinAddr: 0x100007100, symSize: 0x20 }
  - { offsetInCU: 0x2AFAE, offset: 0x2AFAE, size: 0x8, addend: 0x0, symName: __ZNSt8_Rb_treeIxSt4pairIKxxESt10_Select1stIS2_ESt4lessIxESaIS2_EE21_M_get_Node_allocatorEv, symObjAddr: 0x37DC, symBinAddr: 0x1000070D8, symSize: 0x14 }
  - { offsetInCU: 0x2AFB6, offset: 0x2AFB6, size: 0x8, addend: 0x0, symName: __ZNSt8_Rb_treeISt4pairIxxES0_IKS1_xESt10_Select1stIS3_ESt4lessIS1_ESaIS3_EE21_M_get_Node_allocatorEv, symObjAddr: 0x37F0, symBinAddr: 0x1000070EC, symSize: 0x14 }
  - { offsetInCU: 0x2AFDD, offset: 0x2AFDD, size: 0x8, addend: 0x0, symName: __ZNSt8_Rb_treeISt4pairIxxES0_IKS1_xESt10_Select1stIS3_ESt4lessIS1_ESaIS3_EE14_M_insert_nodeEPSt18_Rb_tree_node_baseSB_PSt13_Rb_tree_nodeIS3_E, symObjAddr: 0x3708, symBinAddr: 0x100007004, symSize: 0xD4 }
  - { offsetInCU: 0x2AFE5, offset: 0x2AFE5, size: 0x8, addend: 0x0, symName: __ZNSt8_Rb_treeIxSt4pairIKxxESt10_Select1stIS2_ESt4lessIxESaIS2_EE21_M_get_Node_allocatorEv, symObjAddr: 0x37DC, symBinAddr: 0x1000070D8, symSize: 0x14 }
  - { offsetInCU: 0x2B05D, offset: 0x2B05D, size: 0x8, addend: 0x0, symName: __ZNSt8_Rb_treeISt4pairIxxES0_IKS1_xESt10_Select1stIS3_ESt4lessIS1_ESaIS3_EE6_S_keyEPKSt13_Rb_tree_nodeIS3_E, symObjAddr: 0x36E0, symBinAddr: 0x100006FDC, symSize: 0x28 }
  - { offsetInCU: 0x2B065, offset: 0x2B065, size: 0x8, addend: 0x0, symName: __ZNSt8_Rb_treeISt4pairIxxES0_IKS1_xESt10_Select1stIS3_ESt4lessIS1_ESaIS3_EE14_M_insert_nodeEPSt18_Rb_tree_node_baseSB_PSt13_Rb_tree_nodeIS3_E, symObjAddr: 0x3708, symBinAddr: 0x100007004, symSize: 0xD4 }
  - { offsetInCU: 0x2B08F, offset: 0x2B08F, size: 0x8, addend: 0x0, symName: __ZNSt17_Rb_tree_iteratorISt4pairIKS0_IxxExEEppEv, symObjAddr: 0x36B0, symBinAddr: 0x100006FAC, symSize: 0x30 }
  - { offsetInCU: 0x2B097, offset: 0x2B097, size: 0x8, addend: 0x0, symName: __ZNSt8_Rb_treeISt4pairIxxES0_IKS1_xESt10_Select1stIS3_ESt4lessIS1_ESaIS3_EE6_S_keyEPKSt13_Rb_tree_nodeIS3_E, symObjAddr: 0x36E0, symBinAddr: 0x100006FDC, symSize: 0x28 }
  - { offsetInCU: 0x2B0BE, offset: 0x2B0BE, size: 0x8, addend: 0x0, symName: __ZNSt17_Rb_tree_iteratorISt4pairIKS0_IxxExEEmmEv, symObjAddr: 0x3680, symBinAddr: 0x100006F7C, symSize: 0x30 }
  - { offsetInCU: 0x2B0C6, offset: 0x2B0C6, size: 0x8, addend: 0x0, symName: __ZNSt17_Rb_tree_iteratorISt4pairIKS0_IxxExEEppEv, symObjAddr: 0x36B0, symBinAddr: 0x100006FAC, symSize: 0x30 }
  - { offsetInCU: 0x2B0ED, offset: 0x2B0ED, size: 0x8, addend: 0x0, symName: __ZNSt8_Rb_treeISt4pairIxxES0_IKS1_xESt10_Select1stIS3_ESt4lessIS1_ESaIS3_EE11_M_leftmostEv, symObjAddr: 0x3668, symBinAddr: 0x100006F64, symSize: 0x18 }
  - { offsetInCU: 0x2B0F5, offset: 0x2B0F5, size: 0x8, addend: 0x0, symName: __ZNSt17_Rb_tree_iteratorISt4pairIKS0_IxxExEEmmEv, symObjAddr: 0x3680, symBinAddr: 0x100006F7C, symSize: 0x30 }
  - { offsetInCU: 0x2B11C, offset: 0x2B11C, size: 0x8, addend: 0x0, symName: __ZNSt8_Rb_treeISt4pairIxxES0_IKS1_xESt10_Select1stIS3_ESt4lessIS1_ESaIS3_EE24_M_get_insert_unique_posERS2_, symObjAddr: 0x3504, symBinAddr: 0x100006E00, symSize: 0x164 }
  - { offsetInCU: 0x2B124, offset: 0x2B124, size: 0x8, addend: 0x0, symName: __ZNSt8_Rb_treeISt4pairIxxES0_IKS1_xESt10_Select1stIS3_ESt4lessIS1_ESaIS3_EE11_M_leftmostEv, symObjAddr: 0x3668, symBinAddr: 0x100006F64, symSize: 0x18 }
  - { offsetInCU: 0x2B1B8, offset: 0x2B1B8, size: 0x8, addend: 0x0, symName: __ZNSt8_Rb_treeISt4pairIxxES0_IKS1_xESt10_Select1stIS3_ESt4lessIS1_ESaIS3_EE6_S_keyEPKSt18_Rb_tree_node_base, symObjAddr: 0x34E8, symBinAddr: 0x100006DE4, symSize: 0x1C }
  - { offsetInCU: 0x2B1C0, offset: 0x2B1C0, size: 0x8, addend: 0x0, symName: __ZNSt8_Rb_treeISt4pairIxxES0_IKS1_xESt10_Select1stIS3_ESt4lessIS1_ESaIS3_EE24_M_get_insert_unique_posERS2_, symObjAddr: 0x3504, symBinAddr: 0x100006E00, symSize: 0x164 }
  - { offsetInCU: 0x2B1EA, offset: 0x2B1EA, size: 0x8, addend: 0x0, symName: __ZNSt8_Rb_treeISt4pairIxxES0_IKS1_xESt10_Select1stIS3_ESt4lessIS1_ESaIS3_EE12_M_rightmostEv, symObjAddr: 0x34D0, symBinAddr: 0x100006DCC, symSize: 0x18 }
  - { offsetInCU: 0x2B1F2, offset: 0x2B1F2, size: 0x8, addend: 0x0, symName: __ZNSt8_Rb_treeISt4pairIxxES0_IKS1_xESt10_Select1stIS3_ESt4lessIS1_ESaIS3_EE6_S_keyEPKSt18_Rb_tree_node_base, symObjAddr: 0x34E8, symBinAddr: 0x100006DE4, symSize: 0x1C }
  - { offsetInCU: 0x2B219, offset: 0x2B219, size: 0x8, addend: 0x0, symName: __ZNKSt8_Rb_treeISt4pairIxxES0_IKS1_xESt10_Select1stIS3_ESt4lessIS1_ESaIS3_EE4sizeEv, symObjAddr: 0x34B8, symBinAddr: 0x100006DB4, symSize: 0x18 }
  - { offsetInCU: 0x2B221, offset: 0x2B221, size: 0x8, addend: 0x0, symName: __ZNSt8_Rb_treeISt4pairIxxES0_IKS1_xESt10_Select1stIS3_ESt4lessIS1_ESaIS3_EE12_M_rightmostEv, symObjAddr: 0x34D0, symBinAddr: 0x100006DCC, symSize: 0x18 }
  - { offsetInCU: 0x2B248, offset: 0x2B248, size: 0x8, addend: 0x0, symName: __ZNKSt23_Rb_tree_const_iteratorISt4pairIKS0_IxxExEE13_M_const_castEv, symObjAddr: 0x3490, symBinAddr: 0x100006D8C, symSize: 0x28 }
  - { offsetInCU: 0x2B250, offset: 0x2B250, size: 0x8, addend: 0x0, symName: __ZNKSt8_Rb_treeISt4pairIxxES0_IKS1_xESt10_Select1stIS3_ESt4lessIS1_ESaIS3_EE4sizeEv, symObjAddr: 0x34B8, symBinAddr: 0x100006DB4, symSize: 0x18 }
  - { offsetInCU: 0x2B277, offset: 0x2B277, size: 0x8, addend: 0x0, symName: __ZNSt8_Rb_treeISt4pairIxxES0_IKS1_xESt10_Select1stIS3_ESt4lessIS1_ESaIS3_EE14_M_create_nodeIJRKSt21piecewise_construct_tSt5tupleIJOS1_EESE_IJEEEEEPSt13_Rb_tree_nodeIS3_EDpOT_, symObjAddr: 0x3420, symBinAddr: 0x100006D1C, symSize: 0x70 }
  - { offsetInCU: 0x2B27F, offset: 0x2B27F, size: 0x8, addend: 0x0, symName: __ZNKSt23_Rb_tree_const_iteratorISt4pairIKS0_IxxExEE13_M_const_castEv, symObjAddr: 0x3490, symBinAddr: 0x100006D8C, symSize: 0x28 }
  - { offsetInCU: 0x2B373, offset: 0x2B373, size: 0x8, addend: 0x0, symName: __ZNSt11_Tuple_implILm0EJOSt4pairIxxEEEC2IS1_EEOT_, symObjAddr: 0x33E4, symBinAddr: 0x100006CE0, symSize: 0x3C }
  - { offsetInCU: 0x2B37B, offset: 0x2B37B, size: 0x8, addend: 0x0, symName: __ZNSt8_Rb_treeISt4pairIxxES0_IKS1_xESt10_Select1stIS3_ESt4lessIS1_ESaIS3_EE14_M_create_nodeIJRKSt21piecewise_construct_tSt5tupleIJOS1_EESE_IJEEEEEPSt13_Rb_tree_nodeIS3_EDpOT_, symObjAddr: 0x3420, symBinAddr: 0x100006D1C, symSize: 0x70 }
  - { offsetInCU: 0x2B388, offset: 0x2B388, size: 0x8, addend: 0x0, symName: __ZN9__gnu_cxx16__aligned_membufISt4pairIKS1_IxxExEE6_M_ptrEv, symObjAddr: 0x33C8, symBinAddr: 0x100006CC4, symSize: 0x1C }
  - { offsetInCU: 0x2B390, offset: 0x2B390, size: 0x8, addend: 0x0, symName: __ZNSt11_Tuple_implILm0EJOSt4pairIxxEEEC2IS1_EEOT_, symObjAddr: 0x33E4, symBinAddr: 0x100006CE0, symSize: 0x3C }
  - { offsetInCU: 0x2B3B7, offset: 0x2B3B7, size: 0x8, addend: 0x0, symName: __ZNSt8_Rb_treeISt4pairIxxES0_IKS1_xESt10_Select1stIS3_ESt4lessIS1_ESaIS3_EE14_M_lower_boundEPSt13_Rb_tree_nodeIS3_EPSt18_Rb_tree_node_baseRS2_, symObjAddr: 0x3328, symBinAddr: 0x100006C24, symSize: 0xA0 }
  - { offsetInCU: 0x2B3BF, offset: 0x2B3BF, size: 0x8, addend: 0x0, symName: __ZN9__gnu_cxx16__aligned_membufISt4pairIKS1_IxxExEE6_M_ptrEv, symObjAddr: 0x33C8, symBinAddr: 0x100006CC4, symSize: 0x1C }
  - { offsetInCU: 0x2B422, offset: 0x2B422, size: 0x8, addend: 0x0, symName: __ZNSt8_Rb_treeISt4pairIxxES0_IKS1_xESt10_Select1stIS3_ESt4lessIS1_ESaIS3_EE6_M_endEv, symObjAddr: 0x3310, symBinAddr: 0x100006C0C, symSize: 0x18 }
  - { offsetInCU: 0x2B42A, offset: 0x2B42A, size: 0x8, addend: 0x0, symName: __ZNSt8_Rb_treeISt4pairIxxES0_IKS1_xESt10_Select1stIS3_ESt4lessIS1_ESaIS3_EE14_M_lower_boundEPSt13_Rb_tree_nodeIS3_EPSt18_Rb_tree_node_baseRS2_, symObjAddr: 0x3328, symBinAddr: 0x100006C24, symSize: 0xA0 }
  - { offsetInCU: 0x2B451, offset: 0x2B451, size: 0x8, addend: 0x0, symName: __ZNSt8_Rb_treeIxSt4pairIKxxESt10_Select1stIS2_ESt4lessIxESaIS2_EE14_M_insert_nodeEPSt18_Rb_tree_node_baseSA_PSt13_Rb_tree_nodeIS2_E, symObjAddr: 0x323C, symBinAddr: 0x100006B38, symSize: 0xD4 }
  - { offsetInCU: 0x2B459, offset: 0x2B459, size: 0x8, addend: 0x0, symName: __ZNSt8_Rb_treeISt4pairIxxES0_IKS1_xESt10_Select1stIS3_ESt4lessIS1_ESaIS3_EE6_M_endEv, symObjAddr: 0x3310, symBinAddr: 0x100006C0C, symSize: 0x18 }
  - { offsetInCU: 0x2B4D1, offset: 0x2B4D1, size: 0x8, addend: 0x0, symName: __ZNSt8_Rb_treeIxSt4pairIKxxESt10_Select1stIS2_ESt4lessIxESaIS2_EE6_S_keyEPKSt13_Rb_tree_nodeIS2_E, symObjAddr: 0x3214, symBinAddr: 0x100006B10, symSize: 0x28 }
  - { offsetInCU: 0x2B4D9, offset: 0x2B4D9, size: 0x8, addend: 0x0, symName: __ZNSt8_Rb_treeIxSt4pairIKxxESt10_Select1stIS2_ESt4lessIxESaIS2_EE14_M_insert_nodeEPSt18_Rb_tree_node_baseSA_PSt13_Rb_tree_nodeIS2_E, symObjAddr: 0x323C, symBinAddr: 0x100006B38, symSize: 0xD4 }
  - { offsetInCU: 0x2B503, offset: 0x2B503, size: 0x8, addend: 0x0, symName: __ZNSt17_Rb_tree_iteratorISt4pairIKxxEEppEv, symObjAddr: 0x31E4, symBinAddr: 0x100006AE0, symSize: 0x30 }
  - { offsetInCU: 0x2B50B, offset: 0x2B50B, size: 0x8, addend: 0x0, symName: __ZNSt8_Rb_treeIxSt4pairIKxxESt10_Select1stIS2_ESt4lessIxESaIS2_EE6_S_keyEPKSt13_Rb_tree_nodeIS2_E, symObjAddr: 0x3214, symBinAddr: 0x100006B10, symSize: 0x28 }
  - { offsetInCU: 0x2B532, offset: 0x2B532, size: 0x8, addend: 0x0, symName: __ZNSt17_Rb_tree_iteratorISt4pairIKxxEEmmEv, symObjAddr: 0x31B4, symBinAddr: 0x100006AB0, symSize: 0x30 }
  - { offsetInCU: 0x2B53A, offset: 0x2B53A, size: 0x8, addend: 0x0, symName: __ZNSt17_Rb_tree_iteratorISt4pairIKxxEEppEv, symObjAddr: 0x31E4, symBinAddr: 0x100006AE0, symSize: 0x30 }
  - { offsetInCU: 0x2B5F4, offset: 0x2B5F4, size: 0x8, addend: 0x0, symName: __ZNSt4pairIPSt18_Rb_tree_node_baseS1_EC1IRS1_S4_Lb1EEEOT_OT0_, symObjAddr: 0x316C, symBinAddr: 0x100006A68, symSize: 0x48 }
  - { offsetInCU: 0x2B5FC, offset: 0x2B5FC, size: 0x8, addend: 0x0, symName: __ZNSt17_Rb_tree_iteratorISt4pairIKxxEEmmEv, symObjAddr: 0x31B4, symBinAddr: 0x100006AB0, symSize: 0x30 }
  - { offsetInCU: 0x2B616, offset: 0x2B616, size: 0x8, addend: 0x0, symName: __ZNSt8_Rb_treeIxSt4pairIKxxESt10_Select1stIS2_ESt4lessIxESaIS2_EE11_M_leftmostEv, symObjAddr: 0x3154, symBinAddr: 0x100006A50, symSize: 0x18 }
  - { offsetInCU: 0x2B61E, offset: 0x2B61E, size: 0x8, addend: 0x0, symName: __ZNSt4pairIPSt18_Rb_tree_node_baseS1_EC1IRS1_S4_Lb1EEEOT_OT0_, symObjAddr: 0x316C, symBinAddr: 0x100006A68, symSize: 0x48 }
  - { offsetInCU: 0x2B645, offset: 0x2B645, size: 0x8, addend: 0x0, symName: __ZNSt8_Rb_treeIxSt4pairIKxxESt10_Select1stIS2_ESt4lessIxESaIS2_EE24_M_get_insert_unique_posERS1_, symObjAddr: 0x2FF4, symBinAddr: 0x1000068F0, symSize: 0x160 }
  - { offsetInCU: 0x2B64D, offset: 0x2B64D, size: 0x8, addend: 0x0, symName: __ZNSt8_Rb_treeIxSt4pairIKxxESt10_Select1stIS2_ESt4lessIxESaIS2_EE11_M_leftmostEv, symObjAddr: 0x3154, symBinAddr: 0x100006A50, symSize: 0x18 }
  - { offsetInCU: 0x2B776, offset: 0x2B776, size: 0x8, addend: 0x0, symName: __ZNSt4pairIPSt18_Rb_tree_node_baseS1_EC1IS1_S1_Lb1EEERKS1_S5_, symObjAddr: 0x2FB8, symBinAddr: 0x1000068B4, symSize: 0x3C }
  - { offsetInCU: 0x2B77E, offset: 0x2B77E, size: 0x8, addend: 0x0, symName: __ZNSt8_Rb_treeIxSt4pairIKxxESt10_Select1stIS2_ESt4lessIxESaIS2_EE24_M_get_insert_unique_posERS1_, symObjAddr: 0x2FF4, symBinAddr: 0x1000068F0, symSize: 0x160 }
  - { offsetInCU: 0x2B79A, offset: 0x2B79A, size: 0x8, addend: 0x0, symName: __ZNSt8_Rb_treeIxSt4pairIKxxESt10_Select1stIS2_ESt4lessIxESaIS2_EE6_S_keyEPKSt18_Rb_tree_node_base, symObjAddr: 0x2F9C, symBinAddr: 0x100006898, symSize: 0x1C }
  - { offsetInCU: 0x2B7A2, offset: 0x2B7A2, size: 0x8, addend: 0x0, symName: __ZNSt4pairIPSt18_Rb_tree_node_baseS1_EC1IS1_S1_Lb1EEERKS1_S5_, symObjAddr: 0x2FB8, symBinAddr: 0x1000068B4, symSize: 0x3C }
  - { offsetInCU: 0x2B7CC, offset: 0x2B7CC, size: 0x8, addend: 0x0, symName: __ZNSt8_Rb_treeIxSt4pairIKxxESt10_Select1stIS2_ESt4lessIxESaIS2_EE12_M_rightmostEv, symObjAddr: 0x2F84, symBinAddr: 0x100006880, symSize: 0x18 }
  - { offsetInCU: 0x2B7D4, offset: 0x2B7D4, size: 0x8, addend: 0x0, symName: __ZNSt8_Rb_treeIxSt4pairIKxxESt10_Select1stIS2_ESt4lessIxESaIS2_EE6_S_keyEPKSt18_Rb_tree_node_base, symObjAddr: 0x2F9C, symBinAddr: 0x100006898, symSize: 0x1C }
  - { offsetInCU: 0x2B7FB, offset: 0x2B7FB, size: 0x8, addend: 0x0, symName: __ZNKSt8_Rb_treeIxSt4pairIKxxESt10_Select1stIS2_ESt4lessIxESaIS2_EE4sizeEv, symObjAddr: 0x2F6C, symBinAddr: 0x100006868, symSize: 0x18 }
  - { offsetInCU: 0x2B803, offset: 0x2B803, size: 0x8, addend: 0x0, symName: __ZNSt8_Rb_treeIxSt4pairIKxxESt10_Select1stIS2_ESt4lessIxESaIS2_EE12_M_rightmostEv, symObjAddr: 0x2F84, symBinAddr: 0x100006880, symSize: 0x18 }
  - { offsetInCU: 0x2B82A, offset: 0x2B82A, size: 0x8, addend: 0x0, symName: __ZNKSt23_Rb_tree_const_iteratorISt4pairIKxxEE13_M_const_castEv, symObjAddr: 0x2F44, symBinAddr: 0x100006840, symSize: 0x28 }
  - { offsetInCU: 0x2B832, offset: 0x2B832, size: 0x8, addend: 0x0, symName: __ZNKSt8_Rb_treeIxSt4pairIKxxESt10_Select1stIS2_ESt4lessIxESaIS2_EE4sizeEv, symObjAddr: 0x2F6C, symBinAddr: 0x100006868, symSize: 0x18 }
  - { offsetInCU: 0x2B859, offset: 0x2B859, size: 0x8, addend: 0x0, symName: __ZNSt8_Rb_treeIxSt4pairIKxxESt10_Select1stIS2_ESt4lessIxESaIS2_EE14_M_create_nodeIJRKSt21piecewise_construct_tSt5tupleIJRS1_EESD_IJEEEEEPSt13_Rb_tree_nodeIS2_EDpOT_, symObjAddr: 0x2ED4, symBinAddr: 0x1000067D0, symSize: 0x70 }
  - { offsetInCU: 0x2B861, offset: 0x2B861, size: 0x8, addend: 0x0, symName: __ZNKSt23_Rb_tree_const_iteratorISt4pairIKxxEE13_M_const_castEv, symObjAddr: 0x2F44, symBinAddr: 0x100006840, symSize: 0x28 }
  - { offsetInCU: 0x2B93B, offset: 0x2B93B, size: 0x8, addend: 0x0, symName: __ZNSt10_Head_baseILm0ERKxLb0EEC2ES1_, symObjAddr: 0x2EB0, symBinAddr: 0x1000067AC, symSize: 0x24 }
  - { offsetInCU: 0x2B943, offset: 0x2B943, size: 0x8, addend: 0x0, symName: __ZNSt8_Rb_treeIxSt4pairIKxxESt10_Select1stIS2_ESt4lessIxESaIS2_EE14_M_create_nodeIJRKSt21piecewise_construct_tSt5tupleIJRS1_EESD_IJEEEEEPSt13_Rb_tree_nodeIS2_EDpOT_, symObjAddr: 0x2ED4, symBinAddr: 0x1000067D0, symSize: 0x70 }
  - { offsetInCU: 0x2B950, offset: 0x2B950, size: 0x8, addend: 0x0, symName: __ZN9__gnu_cxx16__aligned_membufISt4pairIKxxEE6_M_ptrEv, symObjAddr: 0x2E94, symBinAddr: 0x100006790, symSize: 0x1C }
  - { offsetInCU: 0x2B958, offset: 0x2B958, size: 0x8, addend: 0x0, symName: __ZNSt10_Head_baseILm0ERKxLb0EEC2ES1_, symObjAddr: 0x2EB0, symBinAddr: 0x1000067AC, symSize: 0x24 }
  - { offsetInCU: 0x2B97F, offset: 0x2B97F, size: 0x8, addend: 0x0, symName: __ZNSt8_Rb_treeIxSt4pairIKxxESt10_Select1stIS2_ESt4lessIxESaIS2_EE14_M_lower_boundEPSt13_Rb_tree_nodeIS2_EPSt18_Rb_tree_node_baseRS1_, symObjAddr: 0x2DF4, symBinAddr: 0x1000066F0, symSize: 0xA0 }
  - { offsetInCU: 0x2B987, offset: 0x2B987, size: 0x8, addend: 0x0, symName: __ZN9__gnu_cxx16__aligned_membufISt4pairIKxxEE6_M_ptrEv, symObjAddr: 0x2E94, symBinAddr: 0x100006790, symSize: 0x1C }
  - { offsetInCU: 0x2B9EA, offset: 0x2B9EA, size: 0x8, addend: 0x0, symName: __ZNSt8_Rb_treeIxSt4pairIKxxESt10_Select1stIS2_ESt4lessIxESaIS2_EE6_M_endEv, symObjAddr: 0x2DDC, symBinAddr: 0x1000066D8, symSize: 0x18 }
  - { offsetInCU: 0x2B9F2, offset: 0x2B9F2, size: 0x8, addend: 0x0, symName: __ZNSt8_Rb_treeIxSt4pairIKxxESt10_Select1stIS2_ESt4lessIxESaIS2_EE14_M_lower_boundEPSt13_Rb_tree_nodeIS2_EPSt18_Rb_tree_node_baseRS1_, symObjAddr: 0x2DF4, symBinAddr: 0x1000066F0, symSize: 0xA0 }
  - { offsetInCU: 0x2BA19, offset: 0x2BA19, size: 0x8, addend: 0x0, symName: __ZNK9__gnu_cxx17__normal_iteratorIPSt4pairIxxESt6vectorIS2_SaIS2_EEEmiEl, symObjAddr: 0x2D98, symBinAddr: 0x100006694, symSize: 0x44 }
  - { offsetInCU: 0x2BA21, offset: 0x2BA21, size: 0x8, addend: 0x0, symName: __ZNSt8_Rb_treeIxSt4pairIKxxESt10_Select1stIS2_ESt4lessIxESaIS2_EE6_M_endEv, symObjAddr: 0x2DDC, symBinAddr: 0x1000066D8, symSize: 0x18 }
  - { offsetInCU: 0x2BAEC, offset: 0x2BAEC, size: 0x8, addend: 0x0, symName: __ZNSt12_Vector_baseISt4pairIxxESaIS1_EE19_M_get_Tp_allocatorEv, symObjAddr: 0x2D84, symBinAddr: 0x100006680, symSize: 0x14 }
  - { offsetInCU: 0x2BAF4, offset: 0x2BAF4, size: 0x8, addend: 0x0, symName: __ZNK9__gnu_cxx17__normal_iteratorIPSt4pairIxxESt6vectorIS2_SaIS2_EEEmiEl, symObjAddr: 0x2D98, symBinAddr: 0x100006694, symSize: 0x44 }
  - { offsetInCU: 0x2BB1B, offset: 0x2BB1B, size: 0x8, addend: 0x0, symName: __ZNSt6vectorISt4pairIxxESaIS1_EE11_S_relocateEPS1_S4_S4_RS2_, symObjAddr: 0x2D50, symBinAddr: 0x10000664C, symSize: 0x34 }
  - { offsetInCU: 0x2BB23, offset: 0x2BB23, size: 0x8, addend: 0x0, symName: __ZNSt12_Vector_baseISt4pairIxxESaIS1_EE19_M_get_Tp_allocatorEv, symObjAddr: 0x2D84, symBinAddr: 0x100006680, symSize: 0x14 }
  - { offsetInCU: 0x2BB89, offset: 0x2BB89, size: 0x8, addend: 0x0, symName: __ZNSt12_Vector_baseISt4pairIxxESaIS1_EE11_M_allocateEm, symObjAddr: 0x2D00, symBinAddr: 0x1000065FC, symSize: 0x50 }
  - { offsetInCU: 0x2BB91, offset: 0x2BB91, size: 0x8, addend: 0x0, symName: __ZNSt6vectorISt4pairIxxESaIS1_EE11_S_relocateEPS1_S4_S4_RS2_, symObjAddr: 0x2D50, symBinAddr: 0x10000664C, symSize: 0x34 }
  - { offsetInCU: 0x2BCDA, offset: 0x2BCDA, size: 0x8, addend: 0x0, symName: __ZN9__gnu_cxxmiIPSt4pairIxxESt6vectorIS2_SaIS2_EEEENS_17__normal_iteratorIT_T0_E15difference_typeERKSA_SD_, symObjAddr: 0x2CC0, symBinAddr: 0x1000065BC, symSize: 0x40 }
  - { offsetInCU: 0x2BCE2, offset: 0x2BCE2, size: 0x8, addend: 0x0, symName: __ZNSt12_Vector_baseISt4pairIxxESaIS1_EE11_M_allocateEm, symObjAddr: 0x2D00, symBinAddr: 0x1000065FC, symSize: 0x50 }
  - { offsetInCU: 0x2BC75, offset: 0x2BC75, size: 0x8, addend: 0x0, symName: __ZNKSt6vectorISt4pairIxxESaIS1_EE12_M_check_lenEmPKc, symObjAddr: 0x2BF0, symBinAddr: 0x1000064EC, symSize: 0xD0 }
  - { offsetInCU: 0x2BC7D, offset: 0x2BC7D, size: 0x8, addend: 0x0, symName: __ZN9__gnu_cxxmiIPSt4pairIxxESt6vectorIS2_SaIS2_EEEENS_17__normal_iteratorIT_T0_E15difference_typeERKSA_SD_, symObjAddr: 0x2CC0, symBinAddr: 0x1000065BC, symSize: 0x40 }
  - { offsetInCU: 0x2BD36, offset: 0x2BD36, size: 0x8, addend: 0x0, symName: __ZNSt8_Rb_treeISt4pairIxxES0_IKS1_xESt10_Select1stIS3_ESt4lessIS1_ESaIS3_EE11_M_put_nodeEPSt13_Rb_tree_nodeIS3_E, symObjAddr: 0x2BA4, symBinAddr: 0x1000064A0, symSize: 0x4C }
  - { offsetInCU: 0x2BD3E, offset: 0x2BD3E, size: 0x8, addend: 0x0, symName: __ZNKSt6vectorISt4pairIxxESaIS1_EE12_M_check_lenEmPKc, symObjAddr: 0x2BF0, symBinAddr: 0x1000064EC, symSize: 0xD0 }
  - { offsetInCU: 0x2BDB7, offset: 0x2BDB7, size: 0x8, addend: 0x0, symName: __ZNSt8_Rb_treeISt4pairIxxES0_IKS1_xESt10_Select1stIS3_ESt4lessIS1_ESaIS3_EE15_M_destroy_nodeEPSt13_Rb_tree_nodeIS3_E, symObjAddr: 0x2B4C, symBinAddr: 0x100006448, symSize: 0x58 }
  - { offsetInCU: 0x2BDBF, offset: 0x2BDBF, size: 0x8, addend: 0x0, symName: __ZNSt8_Rb_treeISt4pairIxxES0_IKS1_xESt10_Select1stIS3_ESt4lessIS1_ESaIS3_EE11_M_put_nodeEPSt13_Rb_tree_nodeIS3_E, symObjAddr: 0x2BA4, symBinAddr: 0x1000064A0, symSize: 0x4C }
  - { offsetInCU: 0x2BE5E, offset: 0x2BE5E, size: 0x8, addend: 0x0, symName: __ZNSt8_Rb_treeIxSt4pairIKxxESt10_Select1stIS2_ESt4lessIxESaIS2_EE11_M_put_nodeEPSt13_Rb_tree_nodeIS2_E, symObjAddr: 0x2B00, symBinAddr: 0x1000063FC, symSize: 0x4C }
  - { offsetInCU: 0x2BE66, offset: 0x2BE66, size: 0x8, addend: 0x0, symName: __ZNSt8_Rb_treeISt4pairIxxES0_IKS1_xESt10_Select1stIS3_ESt4lessIS1_ESaIS3_EE15_M_destroy_nodeEPSt13_Rb_tree_nodeIS3_E, symObjAddr: 0x2B4C, symBinAddr: 0x100006448, symSize: 0x58 }
  - { offsetInCU: 0x2BEDF, offset: 0x2BEDF, size: 0x8, addend: 0x0, symName: __ZNSt8_Rb_treeIxSt4pairIKxxESt10_Select1stIS2_ESt4lessIxESaIS2_EE15_M_destroy_nodeEPSt13_Rb_tree_nodeIS2_E, symObjAddr: 0x2AA8, symBinAddr: 0x1000063A4, symSize: 0x58 }
  - { offsetInCU: 0x2BEE7, offset: 0x2BEE7, size: 0x8, addend: 0x0, symName: __ZNSt8_Rb_treeIxSt4pairIKxxESt10_Select1stIS2_ESt4lessIxESaIS2_EE11_M_put_nodeEPSt13_Rb_tree_nodeIS2_E, symObjAddr: 0x2B00, symBinAddr: 0x1000063FC, symSize: 0x4C }
  - { offsetInCU: 0x2BF86, offset: 0x2BF86, size: 0x8, addend: 0x0, symName: __ZNSt15__new_allocatorISt4pairIxxEE10deallocateEPS1_m, symObjAddr: 0x2A78, symBinAddr: 0x100006374, symSize: 0x30 }
  - { offsetInCU: 0x2BF8E, offset: 0x2BF8E, size: 0x8, addend: 0x0, symName: __ZNSt8_Rb_treeIxSt4pairIKxxESt10_Select1stIS2_ESt4lessIxESaIS2_EE15_M_destroy_nodeEPSt13_Rb_tree_nodeIS2_E, symObjAddr: 0x2AA8, symBinAddr: 0x1000063A4, symSize: 0x58 }
  - { offsetInCU: 0x2BFFE, offset: 0x2BFFE, size: 0x8, addend: 0x0, symName: __Z6_printIiJEEvT_DpT0_, symObjAddr: 0x2A54, symBinAddr: 0x100006350, symSize: 0x24 }
  - { offsetInCU: 0x2C006, offset: 0x2C006, size: 0x8, addend: 0x0, symName: __ZNSt15__new_allocatorISt4pairIxxEE10deallocateEPS1_m, symObjAddr: 0x2A78, symBinAddr: 0x100006374, symSize: 0x30 }
  - { offsetInCU: 0x2C099, offset: 0x2C099, size: 0x8, addend: 0x0, symName: __ZNSt17_Rb_tree_iteratorISt4pairIKS0_IxxExEEC1EPSt18_Rb_tree_node_base, symObjAddr: 0x2A30, symBinAddr: 0x10000632C, symSize: 0x24 }
  - { offsetInCU: 0x2C0A1, offset: 0x2C0A1, size: 0x8, addend: 0x0, symName: __Z6_printIiJEEvT_DpT0_, symObjAddr: 0x2A54, symBinAddr: 0x100006350, symSize: 0x24 }
  - { offsetInCU: 0x2C08C, offset: 0x2C08C, size: 0x8, addend: 0x0, symName: __ZNSt8_Rb_treeISt4pairIxxES0_IKS1_xESt10_Select1stIS3_ESt4lessIS1_ESaIS3_EE10_Auto_node9_M_insertES0_IPSt18_Rb_tree_node_baseSC_E, symObjAddr: 0x29E4, symBinAddr: 0x1000062E0, symSize: 0x4C }
  - { offsetInCU: 0x2C094, offset: 0x2C094, size: 0x8, addend: 0x0, symName: __ZNSt17_Rb_tree_iteratorISt4pairIKS0_IxxExEEC1EPSt18_Rb_tree_node_base, symObjAddr: 0x2A30, symBinAddr: 0x10000632C, symSize: 0x24 }
  - { offsetInCU: 0x2C0E4, offset: 0x2C0E4, size: 0x8, addend: 0x0, symName: __ZNKSt8_Rb_treeISt4pairIxxES0_IKS1_xESt10_Select1stIS3_ESt4lessIS1_ESaIS3_EE10_Auto_node6_M_keyEv, symObjAddr: 0x29C4, symBinAddr: 0x1000062C0, symSize: 0x20 }
  - { offsetInCU: 0x2C0EC, offset: 0x2C0EC, size: 0x8, addend: 0x0, symName: __ZNSt8_Rb_treeISt4pairIxxES0_IKS1_xESt10_Select1stIS3_ESt4lessIS1_ESaIS3_EE10_Auto_node9_M_insertES0_IPSt18_Rb_tree_node_baseSC_E, symObjAddr: 0x29E4, symBinAddr: 0x1000062E0, symSize: 0x4C }
  - { offsetInCU: 0x2C113, offset: 0x2C113, size: 0x8, addend: 0x0, symName: __ZNSt8_Rb_treeISt4pairIxxES0_IKS1_xESt10_Select1stIS3_ESt4lessIS1_ESaIS3_EE29_M_get_insert_hint_unique_posESt23_Rb_tree_const_iteratorIS3_ERS2_, symObjAddr: 0x268C, symBinAddr: 0x100005F88, symSize: 0x338 }
  - { offsetInCU: 0x2C11B, offset: 0x2C11B, size: 0x8, addend: 0x0, symName: __ZNKSt8_Rb_treeISt4pairIxxES0_IKS1_xESt10_Select1stIS3_ESt4lessIS1_ESaIS3_EE10_Auto_node6_M_keyEv, symObjAddr: 0x29C4, symBinAddr: 0x1000062C0, symSize: 0x20 }
  - { offsetInCU: 0x2C258, offset: 0x2C258, size: 0x8, addend: 0x0, symName: __ZNSt8_Rb_treeISt4pairIxxES0_IKS1_xESt10_Select1stIS3_ESt4lessIS1_ESaIS3_EE10_Auto_nodeD1Ev, symObjAddr: 0x2648, symBinAddr: 0x100005F44, symSize: 0x44 }
  - { offsetInCU: 0x2C260, offset: 0x2C260, size: 0x8, addend: 0x0, symName: __ZNSt8_Rb_treeISt4pairIxxES0_IKS1_xESt10_Select1stIS3_ESt4lessIS1_ESaIS3_EE29_M_get_insert_hint_unique_posESt23_Rb_tree_const_iteratorIS3_ERS2_, symObjAddr: 0x268C, symBinAddr: 0x100005F88, symSize: 0x338 }
  - { offsetInCU: 0x2C331, offset: 0x2C331, size: 0x8, addend: 0x0, symName: __ZNSt8_Rb_treeISt4pairIxxES0_IKS1_xESt10_Select1stIS3_ESt4lessIS1_ESaIS3_EE10_Auto_nodeC1IJRKSt21piecewise_construct_tSt5tupleIJOS1_EESF_IJEEEEERS9_DpOT_, symObjAddr: 0x25CC, symBinAddr: 0x100005EC8, symSize: 0x7C }
  - { offsetInCU: 0x2C339, offset: 0x2C339, size: 0x8, addend: 0x0, symName: __ZNSt8_Rb_treeISt4pairIxxES0_IKS1_xESt10_Select1stIS3_ESt4lessIS1_ESaIS3_EE10_Auto_nodeD1Ev, symObjAddr: 0x2648, symBinAddr: 0x100005F44, symSize: 0x44 }
  - { offsetInCU: 0x2C3AC, offset: 0x2C3AC, size: 0x8, addend: 0x0, symName: __ZSt7forwardISt5tupleIJOSt4pairIxxEEEEOT_RNSt16remove_referenceIS5_E4typeE, symObjAddr: 0x25B8, symBinAddr: 0x100005EB4, symSize: 0x14 }
  - { offsetInCU: 0x2C3B4, offset: 0x2C3B4, size: 0x8, addend: 0x0, symName: __ZNSt8_Rb_treeISt4pairIxxES0_IKS1_xESt10_Select1stIS3_ESt4lessIS1_ESaIS3_EE10_Auto_nodeC1IJRKSt21piecewise_construct_tSt5tupleIJOS1_EESF_IJEEEEERS9_DpOT_, symObjAddr: 0x25CC, symBinAddr: 0x100005EC8, symSize: 0x7C }
  - { offsetInCU: 0x2C3EB, offset: 0x2C3EB, size: 0x8, addend: 0x0, symName: __ZNSt5tupleIJOSt4pairIxxEEEC1IJS1_ELb1ELb1EEEDpOT_, symObjAddr: 0x257C, symBinAddr: 0x100005E78, symSize: 0x3C }
  - { offsetInCU: 0x2C3F3, offset: 0x2C3F3, size: 0x8, addend: 0x0, symName: __ZSt7forwardISt5tupleIJOSt4pairIxxEEEEOT_RNSt16remove_referenceIS5_E4typeE, symObjAddr: 0x25B8, symBinAddr: 0x100005EB4, symSize: 0x14 }
  - { offsetInCU: 0x2C464, offset: 0x2C464, size: 0x8, addend: 0x0, symName: __ZStltIxxEbRKSt4pairIT_T0_ES5_, symObjAddr: 0x2514, symBinAddr: 0x100005E10, symSize: 0x68 }
  - { offsetInCU: 0x2C46C, offset: 0x2C46C, size: 0x8, addend: 0x0, symName: __ZNSt5tupleIJOSt4pairIxxEEEC1IJS1_ELb1ELb1EEEDpOT_, symObjAddr: 0x257C, symBinAddr: 0x100005E78, symSize: 0x3C }
  - { offsetInCU: 0x2C484, offset: 0x2C484, size: 0x8, addend: 0x0, symName: __ZNSt13_Rb_tree_nodeISt4pairIKS0_IxxExEE9_M_valptrEv, symObjAddr: 0x24F4, symBinAddr: 0x100005DF0, symSize: 0x20 }
  - { offsetInCU: 0x2C48C, offset: 0x2C48C, size: 0x8, addend: 0x0, symName: __ZStltIxxEbRKSt4pairIT_T0_ES5_, symObjAddr: 0x2514, symBinAddr: 0x100005E10, symSize: 0x68 }
  - { offsetInCU: 0x2C4B3, offset: 0x2C4B3, size: 0x8, addend: 0x0, symName: __ZNKSt8_Rb_treeISt4pairIxxES0_IKS1_xESt10_Select1stIS3_ESt4lessIS1_ESaIS3_EE8key_compEv, symObjAddr: 0x24DC, symBinAddr: 0x100005DD8, symSize: 0x18 }
  - { offsetInCU: 0x2C4BB, offset: 0x2C4BB, size: 0x8, addend: 0x0, symName: __ZNSt13_Rb_tree_nodeISt4pairIKS0_IxxExEE9_M_valptrEv, symObjAddr: 0x24F4, symBinAddr: 0x100005DF0, symSize: 0x20 }
  - { offsetInCU: 0x2C4E2, offset: 0x2C4E2, size: 0x8, addend: 0x0, symName: __ZNSt8_Rb_treeISt4pairIxxES0_IKS1_xESt10_Select1stIS3_ESt4lessIS1_ESaIS3_EE3endEv, symObjAddr: 0x24B4, symBinAddr: 0x100005DB0, symSize: 0x28 }
  - { offsetInCU: 0x2C4EA, offset: 0x2C4EA, size: 0x8, addend: 0x0, symName: __ZNKSt8_Rb_treeISt4pairIxxES0_IKS1_xESt10_Select1stIS3_ESt4lessIS1_ESaIS3_EE8key_compEv, symObjAddr: 0x24DC, symBinAddr: 0x100005DD8, symSize: 0x18 }
  - { offsetInCU: 0x2C511, offset: 0x2C511, size: 0x8, addend: 0x0, symName: __ZNSt8_Rb_treeISt4pairIxxES0_IKS1_xESt10_Select1stIS3_ESt4lessIS1_ESaIS3_EE11lower_boundERS2_, symObjAddr: 0x246C, symBinAddr: 0x100005D68, symSize: 0x48 }
  - { offsetInCU: 0x2C519, offset: 0x2C519, size: 0x8, addend: 0x0, symName: __ZNSt8_Rb_treeISt4pairIxxES0_IKS1_xESt10_Select1stIS3_ESt4lessIS1_ESaIS3_EE3endEv, symObjAddr: 0x24B4, symBinAddr: 0x100005DB0, symSize: 0x28 }
  - { offsetInCU: 0x2C5BF, offset: 0x2C5BF, size: 0x8, addend: 0x0, symName: __ZNSt17_Rb_tree_iteratorISt4pairIKxxEEC1EPSt18_Rb_tree_node_base, symObjAddr: 0x2448, symBinAddr: 0x100005D44, symSize: 0x24 }
  - { offsetInCU: 0x2C5C7, offset: 0x2C5C7, size: 0x8, addend: 0x0, symName: __ZNSt8_Rb_treeISt4pairIxxES0_IKS1_xESt10_Select1stIS3_ESt4lessIS1_ESaIS3_EE11lower_boundERS2_, symObjAddr: 0x246C, symBinAddr: 0x100005D68, symSize: 0x48 }
  - { offsetInCU: 0x2C5B8, offset: 0x2C5B8, size: 0x8, addend: 0x0, symName: __ZNSt8_Rb_treeIxSt4pairIKxxESt10_Select1stIS2_ESt4lessIxESaIS2_EE10_Auto_node9_M_insertES0_IPSt18_Rb_tree_node_baseSB_E, symObjAddr: 0x23FC, symBinAddr: 0x100005CF8, symSize: 0x4C }
  - { offsetInCU: 0x2C5C0, offset: 0x2C5C0, size: 0x8, addend: 0x0, symName: __ZNSt17_Rb_tree_iteratorISt4pairIKxxEEC1EPSt18_Rb_tree_node_base, symObjAddr: 0x2448, symBinAddr: 0x100005D44, symSize: 0x24 }
  - { offsetInCU: 0x2C610, offset: 0x2C610, size: 0x8, addend: 0x0, symName: __ZNKSt8_Rb_treeIxSt4pairIKxxESt10_Select1stIS2_ESt4lessIxESaIS2_EE10_Auto_node6_M_keyEv, symObjAddr: 0x23DC, symBinAddr: 0x100005CD8, symSize: 0x20 }
  - { offsetInCU: 0x2C618, offset: 0x2C618, size: 0x8, addend: 0x0, symName: __ZNSt8_Rb_treeIxSt4pairIKxxESt10_Select1stIS2_ESt4lessIxESaIS2_EE10_Auto_node9_M_insertES0_IPSt18_Rb_tree_node_baseSB_E, symObjAddr: 0x23FC, symBinAddr: 0x100005CF8, symSize: 0x4C }
  - { offsetInCU: 0x2C63F, offset: 0x2C63F, size: 0x8, addend: 0x0, symName: __ZNSt8_Rb_treeIxSt4pairIKxxESt10_Select1stIS2_ESt4lessIxESaIS2_EE29_M_get_insert_hint_unique_posESt23_Rb_tree_const_iteratorIS2_ERS1_, symObjAddr: 0x20A4, symBinAddr: 0x1000059A0, symSize: 0x338 }
  - { offsetInCU: 0x2C647, offset: 0x2C647, size: 0x8, addend: 0x0, symName: __ZNKSt8_Rb_treeIxSt4pairIKxxESt10_Select1stIS2_ESt4lessIxESaIS2_EE10_Auto_node6_M_keyEv, symObjAddr: 0x23DC, symBinAddr: 0x100005CD8, symSize: 0x20 }
  - { offsetInCU: 0x2C77A, offset: 0x2C77A, size: 0x8, addend: 0x0, symName: __ZNSt8_Rb_treeIxSt4pairIKxxESt10_Select1stIS2_ESt4lessIxESaIS2_EE10_Auto_nodeD1Ev, symObjAddr: 0x2060, symBinAddr: 0x10000595C, symSize: 0x44 }
  - { offsetInCU: 0x2C782, offset: 0x2C782, size: 0x8, addend: 0x0, symName: __ZNSt8_Rb_treeIxSt4pairIKxxESt10_Select1stIS2_ESt4lessIxESaIS2_EE29_M_get_insert_hint_unique_posESt23_Rb_tree_const_iteratorIS2_ERS1_, symObjAddr: 0x20A4, symBinAddr: 0x1000059A0, symSize: 0x338 }
  - { offsetInCU: 0x2C853, offset: 0x2C853, size: 0x8, addend: 0x0, symName: __ZNSt8_Rb_treeIxSt4pairIKxxESt10_Select1stIS2_ESt4lessIxESaIS2_EE10_Auto_nodeC1IJRKSt21piecewise_construct_tSt5tupleIJRS1_EESE_IJEEEEERS8_DpOT_, symObjAddr: 0x1FE4, symBinAddr: 0x1000058E0, symSize: 0x7C }
  - { offsetInCU: 0x2C85B, offset: 0x2C85B, size: 0x8, addend: 0x0, symName: __ZNSt8_Rb_treeIxSt4pairIKxxESt10_Select1stIS2_ESt4lessIxESaIS2_EE10_Auto_nodeD1Ev, symObjAddr: 0x2060, symBinAddr: 0x10000595C, symSize: 0x44 }
  - { offsetInCU: 0x2C8A3, offset: 0x2C8A3, size: 0x8, addend: 0x0, symName: __ZSt7forwardISt5tupleIJEEEOT_RNSt16remove_referenceIS2_E4typeE, symObjAddr: 0x1FD0, symBinAddr: 0x1000058CC, symSize: 0x14 }
  - { offsetInCU: 0x2C8AB, offset: 0x2C8AB, size: 0x8, addend: 0x0, symName: __ZNSt8_Rb_treeIxSt4pairIKxxESt10_Select1stIS2_ESt4lessIxESaIS2_EE10_Auto_nodeC1IJRKSt21piecewise_construct_tSt5tupleIJRS1_EESE_IJEEEEERS8_DpOT_, symObjAddr: 0x1FE4, symBinAddr: 0x1000058E0, symSize: 0x7C }
  - { offsetInCU: 0x2C90E, offset: 0x2C90E, size: 0x8, addend: 0x0, symName: __ZSt7forwardISt5tupleIJRKxEEEOT_RNSt16remove_referenceIS4_E4typeE, symObjAddr: 0x1FBC, symBinAddr: 0x1000058B8, symSize: 0x14 }
  - { offsetInCU: 0x2C916, offset: 0x2C916, size: 0x8, addend: 0x0, symName: __ZSt7forwardISt5tupleIJEEEOT_RNSt16remove_referenceIS2_E4typeE, symObjAddr: 0x1FD0, symBinAddr: 0x1000058CC, symSize: 0x14 }
  - { offsetInCU: 0x2C96E, offset: 0x2C96E, size: 0x8, addend: 0x0, symName: __ZSt7forwardIRKSt21piecewise_construct_tEOT_RNSt16remove_referenceIS3_E4typeE, symObjAddr: 0x1FA8, symBinAddr: 0x1000058A4, symSize: 0x14 }
  - { offsetInCU: 0x2C976, offset: 0x2C976, size: 0x8, addend: 0x0, symName: __ZSt7forwardISt5tupleIJRKxEEEOT_RNSt16remove_referenceIS4_E4typeE, symObjAddr: 0x1FBC, symBinAddr: 0x1000058B8, symSize: 0x14 }
  - { offsetInCU: 0x2C993, offset: 0x2C993, size: 0x8, addend: 0x0, symName: __ZNSt11_Tuple_implILm0EJRKxEEC2ES1_, symObjAddr: 0x1F80, symBinAddr: 0x10000587C, symSize: 0x28 }
  - { offsetInCU: 0x2C99B, offset: 0x2C99B, size: 0x8, addend: 0x0, symName: __ZSt7forwardIRKSt21piecewise_construct_tEOT_RNSt16remove_referenceIS3_E4typeE, symObjAddr: 0x1FA8, symBinAddr: 0x1000058A4, symSize: 0x14 }
  - { offsetInCU: 0x2C9A9, offset: 0x2C9A9, size: 0x8, addend: 0x0, symName: __ZNSt13_Rb_tree_nodeISt4pairIKxxEE9_M_valptrEv, symObjAddr: 0x1F60, symBinAddr: 0x10000585C, symSize: 0x20 }
  - { offsetInCU: 0x2C9B1, offset: 0x2C9B1, size: 0x8, addend: 0x0, symName: __ZNSt11_Tuple_implILm0EJRKxEEC2ES1_, symObjAddr: 0x1F80, symBinAddr: 0x10000587C, symSize: 0x28 }
  - { offsetInCU: 0x2C9D8, offset: 0x2C9D8, size: 0x8, addend: 0x0, symName: __ZNKSt8_Rb_treeIxSt4pairIKxxESt10_Select1stIS2_ESt4lessIxESaIS2_EE8key_compEv, symObjAddr: 0x1F48, symBinAddr: 0x100005844, symSize: 0x18 }
  - { offsetInCU: 0x2C9E0, offset: 0x2C9E0, size: 0x8, addend: 0x0, symName: __ZNSt13_Rb_tree_nodeISt4pairIKxxEE9_M_valptrEv, symObjAddr: 0x1F60, symBinAddr: 0x10000585C, symSize: 0x20 }
  - { offsetInCU: 0x2CA07, offset: 0x2CA07, size: 0x8, addend: 0x0, symName: __ZNSt8_Rb_treeIxSt4pairIKxxESt10_Select1stIS2_ESt4lessIxESaIS2_EE3endEv, symObjAddr: 0x1F20, symBinAddr: 0x10000581C, symSize: 0x28 }
  - { offsetInCU: 0x2CA0F, offset: 0x2CA0F, size: 0x8, addend: 0x0, symName: __ZNKSt8_Rb_treeIxSt4pairIKxxESt10_Select1stIS2_ESt4lessIxESaIS2_EE8key_compEv, symObjAddr: 0x1F48, symBinAddr: 0x100005844, symSize: 0x18 }
  - { offsetInCU: 0x2CA36, offset: 0x2CA36, size: 0x8, addend: 0x0, symName: __ZNSt8_Rb_treeIxSt4pairIKxxESt10_Select1stIS2_ESt4lessIxESaIS2_EE11lower_boundERS1_, symObjAddr: 0x1ED8, symBinAddr: 0x1000057D4, symSize: 0x48 }
  - { offsetInCU: 0x2CA3E, offset: 0x2CA3E, size: 0x8, addend: 0x0, symName: __ZNSt8_Rb_treeIxSt4pairIKxxESt10_Select1stIS2_ESt4lessIxESaIS2_EE3endEv, symObjAddr: 0x1F20, symBinAddr: 0x10000581C, symSize: 0x28 }
  - { offsetInCU: 0x2CA79, offset: 0x2CA79, size: 0x8, addend: 0x0, symName: __ZNSt6vectorISt4pairIxxESaIS1_EE4backEv, symObjAddr: 0x1EA0, symBinAddr: 0x10000579C, symSize: 0x38 }
  - { offsetInCU: 0x2CA81, offset: 0x2CA81, size: 0x8, addend: 0x0, symName: __ZNSt8_Rb_treeIxSt4pairIKxxESt10_Select1stIS2_ESt4lessIxESaIS2_EE11lower_boundERS1_, symObjAddr: 0x1ED8, symBinAddr: 0x1000057D4, symSize: 0x48 }
  - { offsetInCU: 0x2CAA8, offset: 0x2CAA8, size: 0x8, addend: 0x0, symName: __ZNSt6vectorISt4pairIxxESaIS1_EE17_M_realloc_insertIJS1_EEEvN9__gnu_cxx17__normal_iteratorIPS1_S3_EEDpOT_, symObjAddr: 0x1CE0, symBinAddr: 0x1000055DC, symSize: 0x1C0 }
  - { offsetInCU: 0x2CAB0, offset: 0x2CAB0, size: 0x8, addend: 0x0, symName: __ZNSt6vectorISt4pairIxxESaIS1_EE4backEv, symObjAddr: 0x1EA0, symBinAddr: 0x10000579C, symSize: 0x38 }
  - { offsetInCU: 0x2CCDC, offset: 0x2CCDC, size: 0x8, addend: 0x0, symName: __ZSt7forwardISt4pairIxxEEOT_RNSt16remove_referenceIS2_E4typeE, symObjAddr: 0x1CCC, symBinAddr: 0x1000055C8, symSize: 0x14 }
  - { offsetInCU: 0x2CCE4, offset: 0x2CCE4, size: 0x8, addend: 0x0, symName: __ZNSt6vectorISt4pairIxxESaIS1_EE17_M_realloc_insertIJS1_EEEvN9__gnu_cxx17__normal_iteratorIPS1_S3_EEDpOT_, symObjAddr: 0x1CE0, symBinAddr: 0x1000055DC, symSize: 0x1C0 }
  - { offsetInCU: 0x2CCBC, offset: 0x2CCBC, size: 0x8, addend: 0x0, symName: __ZNKSt8_Rb_treeISt4pairIxxES0_IKS1_xESt10_Select1stIS3_ESt4lessIS1_ESaIS3_EE9_M_mbeginEv, symObjAddr: 0x1CB4, symBinAddr: 0x1000055B0, symSize: 0x18 }
  - { offsetInCU: 0x2CCC4, offset: 0x2CCC4, size: 0x8, addend: 0x0, symName: __ZSt7forwardISt4pairIxxEEOT_RNSt16remove_referenceIS2_E4typeE, symObjAddr: 0x1CCC, symBinAddr: 0x1000055C8, symSize: 0x14 }
  - { offsetInCU: 0x2CCEB, offset: 0x2CCEB, size: 0x8, addend: 0x0, symName: __ZNSt8_Rb_treeISt4pairIxxES0_IKS1_xESt10_Select1stIS3_ESt4lessIS1_ESaIS3_EE12_M_drop_nodeEPSt13_Rb_tree_nodeIS3_E, symObjAddr: 0x1C80, symBinAddr: 0x10000557C, symSize: 0x34 }
  - { offsetInCU: 0x2CCF3, offset: 0x2CCF3, size: 0x8, addend: 0x0, symName: __ZNKSt8_Rb_treeISt4pairIxxES0_IKS1_xESt10_Select1stIS3_ESt4lessIS1_ESaIS3_EE9_M_mbeginEv, symObjAddr: 0x1CB4, symBinAddr: 0x1000055B0, symSize: 0x18 }
  - { offsetInCU: 0x2CD2E, offset: 0x2CD2E, size: 0x8, addend: 0x0, symName: __ZNSt8_Rb_treeISt4pairIxxES0_IKS1_xESt10_Select1stIS3_ESt4lessIS1_ESaIS3_EE7_S_leftEPSt18_Rb_tree_node_base, symObjAddr: 0x1C68, symBinAddr: 0x100005564, symSize: 0x18 }
  - { offsetInCU: 0x2CD36, offset: 0x2CD36, size: 0x8, addend: 0x0, symName: __ZNSt8_Rb_treeISt4pairIxxES0_IKS1_xESt10_Select1stIS3_ESt4lessIS1_ESaIS3_EE12_M_drop_nodeEPSt13_Rb_tree_nodeIS3_E, symObjAddr: 0x1C80, symBinAddr: 0x10000557C, symSize: 0x34 }
  - { offsetInCU: 0x2CD60, offset: 0x2CD60, size: 0x8, addend: 0x0, symName: __ZNSt8_Rb_treeISt4pairIxxES0_IKS1_xESt10_Select1stIS3_ESt4lessIS1_ESaIS3_EE8_S_rightEPSt18_Rb_tree_node_base, symObjAddr: 0x1C50, symBinAddr: 0x10000554C, symSize: 0x18 }
  - { offsetInCU: 0x2CD68, offset: 0x2CD68, size: 0x8, addend: 0x0, symName: __ZNSt8_Rb_treeISt4pairIxxES0_IKS1_xESt10_Select1stIS3_ESt4lessIS1_ESaIS3_EE7_S_leftEPSt18_Rb_tree_node_base, symObjAddr: 0x1C68, symBinAddr: 0x100005564, symSize: 0x18 }
  - { offsetInCU: 0x2CDAB, offset: 0x2CDAB, size: 0x8, addend: 0x0, symName: __ZNKSt8_Rb_treeIxSt4pairIKxxESt10_Select1stIS2_ESt4lessIxESaIS2_EE9_M_mbeginEv, symObjAddr: 0x1C38, symBinAddr: 0x100005534, symSize: 0x18 }
  - { offsetInCU: 0x2CDB3, offset: 0x2CDB3, size: 0x8, addend: 0x0, symName: __ZNSt8_Rb_treeISt4pairIxxES0_IKS1_xESt10_Select1stIS3_ESt4lessIS1_ESaIS3_EE8_S_rightEPSt18_Rb_tree_node_base, symObjAddr: 0x1C50, symBinAddr: 0x10000554C, symSize: 0x18 }
  - { offsetInCU: 0x2CDDA, offset: 0x2CDDA, size: 0x8, addend: 0x0, symName: __ZNSt8_Rb_treeIxSt4pairIKxxESt10_Select1stIS2_ESt4lessIxESaIS2_EE12_M_drop_nodeEPSt13_Rb_tree_nodeIS2_E, symObjAddr: 0x1C04, symBinAddr: 0x100005500, symSize: 0x34 }
  - { offsetInCU: 0x2CDE2, offset: 0x2CDE2, size: 0x8, addend: 0x0, symName: __ZNKSt8_Rb_treeIxSt4pairIKxxESt10_Select1stIS2_ESt4lessIxESaIS2_EE9_M_mbeginEv, symObjAddr: 0x1C38, symBinAddr: 0x100005534, symSize: 0x18 }
  - { offsetInCU: 0x2CE1D, offset: 0x2CE1D, size: 0x8, addend: 0x0, symName: __ZNSt8_Rb_treeIxSt4pairIKxxESt10_Select1stIS2_ESt4lessIxESaIS2_EE7_S_leftEPSt18_Rb_tree_node_base, symObjAddr: 0x1BEC, symBinAddr: 0x1000054E8, symSize: 0x18 }
  - { offsetInCU: 0x2CE25, offset: 0x2CE25, size: 0x8, addend: 0x0, symName: __ZNSt8_Rb_treeIxSt4pairIKxxESt10_Select1stIS2_ESt4lessIxESaIS2_EE12_M_drop_nodeEPSt13_Rb_tree_nodeIS2_E, symObjAddr: 0x1C04, symBinAddr: 0x100005500, symSize: 0x34 }
  - { offsetInCU: 0x2CE4F, offset: 0x2CE4F, size: 0x8, addend: 0x0, symName: __ZNSt8_Rb_treeIxSt4pairIKxxESt10_Select1stIS2_ESt4lessIxESaIS2_EE8_S_rightEPSt18_Rb_tree_node_base, symObjAddr: 0x1BD4, symBinAddr: 0x1000054D0, symSize: 0x18 }
  - { offsetInCU: 0x2CE57, offset: 0x2CE57, size: 0x8, addend: 0x0, symName: __ZNSt8_Rb_treeIxSt4pairIKxxESt10_Select1stIS2_ESt4lessIxESaIS2_EE7_S_leftEPSt18_Rb_tree_node_base, symObjAddr: 0x1BEC, symBinAddr: 0x1000054E8, symSize: 0x18 }
  - { offsetInCU: 0x2CF3E, offset: 0x2CF3E, size: 0x8, addend: 0x0, symName: __Z6_printIxJxxEEvT_DpT0_, symObjAddr: 0x1B8C, symBinAddr: 0x100005488, symSize: 0x48 }
  - { offsetInCU: 0x2CF46, offset: 0x2CF46, size: 0x8, addend: 0x0, symName: __ZNSt8_Rb_treeIxSt4pairIKxxESt10_Select1stIS2_ESt4lessIxESaIS2_EE8_S_rightEPSt18_Rb_tree_node_base, symObjAddr: 0x1BD4, symBinAddr: 0x1000054D0, symSize: 0x18 }
  - { offsetInCU: 0x2CF9F, offset: 0x2CF9F, size: 0x8, addend: 0x0, symName: __Z6_printIxJiEEvT_DpT0_, symObjAddr: 0x1B4C, symBinAddr: 0x100005448, symSize: 0x40 }
  - { offsetInCU: 0x2CFA7, offset: 0x2CFA7, size: 0x8, addend: 0x0, symName: __Z6_printIxJxxEEvT_DpT0_, symObjAddr: 0x1B8C, symBinAddr: 0x100005488, symSize: 0x48 }
  - { offsetInCU: 0x2CFD1, offset: 0x2CFD1, size: 0x8, addend: 0x0, symName: __ZNSt8_Rb_treeISt4pairIxxES0_IKS1_xESt10_Select1stIS3_ESt4lessIS1_ESaIS3_EE22_M_emplace_hint_uniqueIJRKSt21piecewise_construct_tSt5tupleIJOS1_EESE_IJEEEEESt17_Rb_tree_iteratorIS3_ESt23_Rb_tree_const_iteratorIS3_EDpOT_, symObjAddr: 0x1A74, symBinAddr: 0x100005370, symSize: 0xD8 }
  - { offsetInCU: 0x2CFD9, offset: 0x2CFD9, size: 0x8, addend: 0x0, symName: __Z6_printIxJiEEvT_DpT0_, symObjAddr: 0x1B4C, symBinAddr: 0x100005448, symSize: 0x40 }
  - { offsetInCU: 0x2D10C, offset: 0x2D10C, size: 0x8, addend: 0x0, symName: __ZNSt23_Rb_tree_const_iteratorISt4pairIKS0_IxxExEEC1ERKSt17_Rb_tree_iteratorIS3_E, symObjAddr: 0x1A4C, symBinAddr: 0x100005348, symSize: 0x28 }
  - { offsetInCU: 0x2D114, offset: 0x2D114, size: 0x8, addend: 0x0, symName: __ZNSt8_Rb_treeISt4pairIxxES0_IKS1_xESt10_Select1stIS3_ESt4lessIS1_ESaIS3_EE22_M_emplace_hint_uniqueIJRKSt21piecewise_construct_tSt5tupleIJOS1_EESE_IJEEEEESt17_Rb_tree_iteratorIS3_ESt23_Rb_tree_const_iteratorIS3_EDpOT_, symObjAddr: 0x1A74, symBinAddr: 0x100005370, symSize: 0xD8 }
  - { offsetInCU: 0x2D16E, offset: 0x2D16E, size: 0x8, addend: 0x0, symName: __ZSt16forward_as_tupleIJSt4pairIxxEEESt5tupleIJDpOT_EES5_, symObjAddr: 0x1A14, symBinAddr: 0x100005310, symSize: 0x38 }
  - { offsetInCU: 0x2D176, offset: 0x2D176, size: 0x8, addend: 0x0, symName: __ZNSt23_Rb_tree_const_iteratorISt4pairIKS0_IxxExEEC1ERKSt17_Rb_tree_iteratorIS3_E, symObjAddr: 0x1A4C, symBinAddr: 0x100005348, symSize: 0x28 }
  - { offsetInCU: 0x2D142, offset: 0x2D142, size: 0x8, addend: 0x0, symName: __ZNKSt4lessISt4pairIxxEEclERKS1_S4_, symObjAddr: 0x19E8, symBinAddr: 0x1000052E4, symSize: 0x2C }
  - { offsetInCU: 0x2D14A, offset: 0x2D14A, size: 0x8, addend: 0x0, symName: __ZSt16forward_as_tupleIJSt4pairIxxEEESt5tupleIJDpOT_EES5_, symObjAddr: 0x1A14, symBinAddr: 0x100005310, symSize: 0x38 }
  - { offsetInCU: 0x2D199, offset: 0x2D199, size: 0x8, addend: 0x0, symName: __ZNKSt17_Rb_tree_iteratorISt4pairIKS0_IxxExEEdeEv, symObjAddr: 0x19C8, symBinAddr: 0x1000052C4, symSize: 0x20 }
  - { offsetInCU: 0x2D1A1, offset: 0x2D1A1, size: 0x8, addend: 0x0, symName: __ZNKSt4lessISt4pairIxxEEclERKS1_S4_, symObjAddr: 0x19E8, symBinAddr: 0x1000052E4, symSize: 0x2C }
  - { offsetInCU: 0x2D1C8, offset: 0x2D1C8, size: 0x8, addend: 0x0, symName: __ZNKSt3mapISt4pairIxxExSt4lessIS1_ESaIS0_IKS1_xEEE8key_compEv, symObjAddr: 0x199C, symBinAddr: 0x100005298, symSize: 0x2C }
  - { offsetInCU: 0x2D1D0, offset: 0x2D1D0, size: 0x8, addend: 0x0, symName: __ZNKSt17_Rb_tree_iteratorISt4pairIKS0_IxxExEEdeEv, symObjAddr: 0x19C8, symBinAddr: 0x1000052C4, symSize: 0x20 }
  - { offsetInCU: 0x2D236, offset: 0x2D236, size: 0x8, addend: 0x0, symName: __ZSteqRKSt17_Rb_tree_iteratorISt4pairIKS0_IxxExEES6_, symObjAddr: 0x196C, symBinAddr: 0x100005268, symSize: 0x30 }
  - { offsetInCU: 0x2D23E, offset: 0x2D23E, size: 0x8, addend: 0x0, symName: __ZNKSt3mapISt4pairIxxExSt4lessIS1_ESaIS0_IKS1_xEEE8key_compEv, symObjAddr: 0x199C, symBinAddr: 0x100005298, symSize: 0x2C }
  - { offsetInCU: 0x2D254, offset: 0x2D254, size: 0x8, addend: 0x0, symName: __ZNSt3mapISt4pairIxxExSt4lessIS1_ESaIS0_IKS1_xEEE3endEv, symObjAddr: 0x1950, symBinAddr: 0x10000524C, symSize: 0x1C }
  - { offsetInCU: 0x2D25C, offset: 0x2D25C, size: 0x8, addend: 0x0, symName: __ZSteqRKSt17_Rb_tree_iteratorISt4pairIKS0_IxxExEES6_, symObjAddr: 0x196C, symBinAddr: 0x100005268, symSize: 0x30 }
  - { offsetInCU: 0x2D283, offset: 0x2D283, size: 0x8, addend: 0x0, symName: __ZNSt3mapISt4pairIxxExSt4lessIS1_ESaIS0_IKS1_xEEE11lower_boundERS4_, symObjAddr: 0x192C, symBinAddr: 0x100005228, symSize: 0x24 }
  - { offsetInCU: 0x2D28B, offset: 0x2D28B, size: 0x8, addend: 0x0, symName: __ZNSt3mapISt4pairIxxExSt4lessIS1_ESaIS0_IKS1_xEEE3endEv, symObjAddr: 0x1950, symBinAddr: 0x10000524C, symSize: 0x1C }
  - { offsetInCU: 0x2D2F9, offset: 0x2D2F9, size: 0x8, addend: 0x0, symName: __Z6_printIiJxEEvT_DpT0_, symObjAddr: 0x18EC, symBinAddr: 0x1000051E8, symSize: 0x40 }
  - { offsetInCU: 0x2D301, offset: 0x2D301, size: 0x8, addend: 0x0, symName: __ZNSt3mapISt4pairIxxExSt4lessIS1_ESaIS0_IKS1_xEEE11lower_boundERS4_, symObjAddr: 0x192C, symBinAddr: 0x100005228, symSize: 0x24 }
  - { offsetInCU: 0x2D368, offset: 0x2D368, size: 0x8, addend: 0x0, symName: __Z6_printIxJxEEvT_DpT0_, symObjAddr: 0x18AC, symBinAddr: 0x1000051A8, symSize: 0x40 }
  - { offsetInCU: 0x2D370, offset: 0x2D370, size: 0x8, addend: 0x0, symName: __Z6_printIiJxEEvT_DpT0_, symObjAddr: 0x18EC, symBinAddr: 0x1000051E8, symSize: 0x40 }
  - { offsetInCU: 0x2D390, offset: 0x2D390, size: 0x8, addend: 0x0, symName: __ZNSt8_Rb_treeIxSt4pairIKxxESt10_Select1stIS2_ESt4lessIxESaIS2_EE22_M_emplace_hint_uniqueIJRKSt21piecewise_construct_tSt5tupleIJRS1_EESD_IJEEEEESt17_Rb_tree_iteratorIS2_ESt23_Rb_tree_const_iteratorIS2_EDpOT_, symObjAddr: 0x17D4, symBinAddr: 0x1000050D0, symSize: 0xD8 }
  - { offsetInCU: 0x2D398, offset: 0x2D398, size: 0x8, addend: 0x0, symName: __Z6_printIxJxEEvT_DpT0_, symObjAddr: 0x18AC, symBinAddr: 0x1000051A8, symSize: 0x40 }
  - { offsetInCU: 0x2D4C5, offset: 0x2D4C5, size: 0x8, addend: 0x0, symName: __ZNSt23_Rb_tree_const_iteratorISt4pairIKxxEEC1ERKSt17_Rb_tree_iteratorIS2_E, symObjAddr: 0x17AC, symBinAddr: 0x1000050A8, symSize: 0x28 }
  - { offsetInCU: 0x2D4CD, offset: 0x2D4CD, size: 0x8, addend: 0x0, symName: __ZNSt8_Rb_treeIxSt4pairIKxxESt10_Select1stIS2_ESt4lessIxESaIS2_EE22_M_emplace_hint_uniqueIJRKSt21piecewise_construct_tSt5tupleIJRS1_EESD_IJEEEEESt17_Rb_tree_iteratorIS2_ESt23_Rb_tree_const_iteratorIS2_EDpOT_, symObjAddr: 0x17D4, symBinAddr: 0x1000050D0, symSize: 0xD8 }
  - { offsetInCU: 0x2D50F, offset: 0x2D50F, size: 0x8, addend: 0x0, symName: __ZNSt5tupleIJRKxEEC1ILb1ELb1EEES1_, symObjAddr: 0x1784, symBinAddr: 0x100005080, symSize: 0x28 }
  - { offsetInCU: 0x2D517, offset: 0x2D517, size: 0x8, addend: 0x0, symName: __ZNSt23_Rb_tree_const_iteratorISt4pairIKxxEEC1ERKSt17_Rb_tree_iteratorIS2_E, symObjAddr: 0x17AC, symBinAddr: 0x1000050A8, symSize: 0x28 }
  - { offsetInCU: 0x2D535, offset: 0x2D535, size: 0x8, addend: 0x0, symName: __ZNKSt4lessIxEclERKxS2_, symObjAddr: 0x1750, symBinAddr: 0x10000504C, symSize: 0x34 }
  - { offsetInCU: 0x2D53D, offset: 0x2D53D, size: 0x8, addend: 0x0, symName: __ZNSt5tupleIJRKxEEC1ILb1ELb1EEES1_, symObjAddr: 0x1784, symBinAddr: 0x100005080, symSize: 0x28 }
  - { offsetInCU: 0x2D58C, offset: 0x2D58C, size: 0x8, addend: 0x0, symName: __ZNKSt17_Rb_tree_iteratorISt4pairIKxxEEdeEv, symObjAddr: 0x1730, symBinAddr: 0x10000502C, symSize: 0x20 }
  - { offsetInCU: 0x2D594, offset: 0x2D594, size: 0x8, addend: 0x0, symName: __ZNKSt4lessIxEclERKxS2_, symObjAddr: 0x1750, symBinAddr: 0x10000504C, symSize: 0x34 }
  - { offsetInCU: 0x2D5BB, offset: 0x2D5BB, size: 0x8, addend: 0x0, symName: __ZNKSt3mapIxxSt4lessIxESaISt4pairIKxxEEE8key_compEv, symObjAddr: 0x1704, symBinAddr: 0x100005000, symSize: 0x2C }
  - { offsetInCU: 0x2D5C3, offset: 0x2D5C3, size: 0x8, addend: 0x0, symName: __ZNKSt17_Rb_tree_iteratorISt4pairIKxxEEdeEv, symObjAddr: 0x1730, symBinAddr: 0x10000502C, symSize: 0x20 }
  - { offsetInCU: 0x2D623, offset: 0x2D623, size: 0x8, addend: 0x0, symName: __ZSteqRKSt17_Rb_tree_iteratorISt4pairIKxxEES5_, symObjAddr: 0x16D4, symBinAddr: 0x100004FD0, symSize: 0x30 }
  - { offsetInCU: 0x2D62B, offset: 0x2D62B, size: 0x8, addend: 0x0, symName: __ZNKSt3mapIxxSt4lessIxESaISt4pairIKxxEEE8key_compEv, symObjAddr: 0x1704, symBinAddr: 0x100005000, symSize: 0x2C }
  - { offsetInCU: 0x2D647, offset: 0x2D647, size: 0x8, addend: 0x0, symName: __ZNSt3mapIxxSt4lessIxESaISt4pairIKxxEEE3endEv, symObjAddr: 0x16B8, symBinAddr: 0x100004FB4, symSize: 0x1C }
  - { offsetInCU: 0x2D64F, offset: 0x2D64F, size: 0x8, addend: 0x0, symName: __ZSteqRKSt17_Rb_tree_iteratorISt4pairIKxxEES5_, symObjAddr: 0x16D4, symBinAddr: 0x100004FD0, symSize: 0x30 }
  - { offsetInCU: 0x2D676, offset: 0x2D676, size: 0x8, addend: 0x0, symName: __ZNSt3mapIxxSt4lessIxESaISt4pairIKxxEEE11lower_boundERS3_, symObjAddr: 0x1694, symBinAddr: 0x100004F90, symSize: 0x24 }
  - { offsetInCU: 0x2D67E, offset: 0x2D67E, size: 0x8, addend: 0x0, symName: __ZNSt3mapIxxSt4lessIxESaISt4pairIKxxEEE3endEv, symObjAddr: 0x16B8, symBinAddr: 0x100004FB4, symSize: 0x1C }
  - { offsetInCU: 0x2D6B9, offset: 0x2D6B9, size: 0x8, addend: 0x0, symName: __ZNK9__gnu_cxx17__normal_iteratorIPSt4pairIxxESt6vectorIS2_SaIS2_EEE4baseEv, symObjAddr: 0x1680, symBinAddr: 0x100004F7C, symSize: 0x14 }
  - { offsetInCU: 0x2D6C1, offset: 0x2D6C1, size: 0x8, addend: 0x0, symName: __ZNSt3mapIxxSt4lessIxESaISt4pairIKxxEEE11lower_boundERS3_, symObjAddr: 0x1694, symBinAddr: 0x100004F90, symSize: 0x24 }
  - { offsetInCU: 0x2D75E, offset: 0x2D75E, size: 0x8, addend: 0x0, symName: __ZN9__gnu_cxx17__normal_iteratorIPSt4pairIxxESt6vectorIS2_SaIS2_EEEC1ERKS3_, symObjAddr: 0x1658, symBinAddr: 0x100004F54, symSize: 0x28 }
  - { offsetInCU: 0x2D766, offset: 0x2D766, size: 0x8, addend: 0x0, symName: __ZNK9__gnu_cxx17__normal_iteratorIPSt4pairIxxESt6vectorIS2_SaIS2_EEE4baseEv, symObjAddr: 0x1680, symBinAddr: 0x100004F7C, symSize: 0x14 }
  - { offsetInCU: 0x2D74C, offset: 0x2D74C, size: 0x8, addend: 0x0, symName: __ZNSt6vectorISt4pairIxxESaIS1_EE12emplace_backIJS1_EEERS1_DpOT_, symObjAddr: 0x1570, symBinAddr: 0x100004E6C, symSize: 0xE8 }
  - { offsetInCU: 0x2D754, offset: 0x2D754, size: 0x8, addend: 0x0, symName: __ZN9__gnu_cxx17__normal_iteratorIPSt4pairIxxESt6vectorIS2_SaIS2_EEEC1ERKS3_, symObjAddr: 0x1658, symBinAddr: 0x100004F54, symSize: 0x28 }
  - { offsetInCU: 0x2D86A, offset: 0x2D86A, size: 0x8, addend: 0x0, symName: __ZSt7forwardIRxEOT_RNSt16remove_referenceIS1_E4typeE, symObjAddr: 0x155C, symBinAddr: 0x100004E58, symSize: 0x14 }
  - { offsetInCU: 0x2D872, offset: 0x2D872, size: 0x8, addend: 0x0, symName: __ZNSt6vectorISt4pairIxxESaIS1_EE12emplace_backIJS1_EEERS1_DpOT_, symObjAddr: 0x1570, symBinAddr: 0x100004E6C, symSize: 0xE8 }
  - { offsetInCU: 0x2D86D, offset: 0x2D86D, size: 0x8, addend: 0x0, symName: __ZNSt8_Rb_treeISt4pairIxxES0_IKS1_xESt10_Select1stIS3_ESt4lessIS1_ESaIS3_EE8_M_beginEv, symObjAddr: 0x1540, symBinAddr: 0x100004E3C, symSize: 0x1C }
  - { offsetInCU: 0x2D875, offset: 0x2D875, size: 0x8, addend: 0x0, symName: __ZSt7forwardIRxEOT_RNSt16remove_referenceIS1_E4typeE, symObjAddr: 0x155C, symBinAddr: 0x100004E58, symSize: 0x14 }
  - { offsetInCU: 0x2D89C, offset: 0x2D89C, size: 0x8, addend: 0x0, symName: __ZNSt8_Rb_treeISt4pairIxxES0_IKS1_xESt10_Select1stIS3_ESt4lessIS1_ESaIS3_EE8_M_eraseEPSt13_Rb_tree_nodeIS3_E, symObjAddr: 0x14DC, symBinAddr: 0x100004DD8, symSize: 0x64 }
  - { offsetInCU: 0x2D8A4, offset: 0x2D8A4, size: 0x8, addend: 0x0, symName: __ZNSt8_Rb_treeISt4pairIxxES0_IKS1_xESt10_Select1stIS3_ESt4lessIS1_ESaIS3_EE8_M_beginEv, symObjAddr: 0x1540, symBinAddr: 0x100004E3C, symSize: 0x1C }
  - { offsetInCU: 0x2D970, offset: 0x2D970, size: 0x8, addend: 0x0, symName: __ZNSt15__new_allocatorISt13_Rb_tree_nodeISt4pairIKS1_IxxExEEED2Ev, symObjAddr: 0x14C8, symBinAddr: 0x100004DC4, symSize: 0x14 }
  - { offsetInCU: 0x2D978, offset: 0x2D978, size: 0x8, addend: 0x0, symName: __ZNSt8_Rb_treeISt4pairIxxES0_IKS1_xESt10_Select1stIS3_ESt4lessIS1_ESaIS3_EE8_M_eraseEPSt13_Rb_tree_nodeIS3_E, symObjAddr: 0x14DC, symBinAddr: 0x100004DD8, symSize: 0x64 }
  - { offsetInCU: 0x2D9AB, offset: 0x2D9AB, size: 0x8, addend: 0x0, symName: __ZNSt20_Rb_tree_key_compareISt4lessISt4pairIxxEEEC2Ev, symObjAddr: 0x14B4, symBinAddr: 0x100004DB0, symSize: 0x14 }
  - { offsetInCU: 0x2D9B3, offset: 0x2D9B3, size: 0x8, addend: 0x0, symName: __ZNSt15__new_allocatorISt13_Rb_tree_nodeISt4pairIKS1_IxxExEEED2Ev, symObjAddr: 0x14C8, symBinAddr: 0x100004DC4, symSize: 0x14 }
  - { offsetInCU: 0x2D9BC, offset: 0x2D9BC, size: 0x8, addend: 0x0, symName: __ZNSt8_Rb_treeIxSt4pairIKxxESt10_Select1stIS2_ESt4lessIxESaIS2_EE8_M_beginEv, symObjAddr: 0x1498, symBinAddr: 0x100004D94, symSize: 0x1C }
  - { offsetInCU: 0x2D9C4, offset: 0x2D9C4, size: 0x8, addend: 0x0, symName: __ZNSt20_Rb_tree_key_compareISt4lessISt4pairIxxEEEC2Ev, symObjAddr: 0x14B4, symBinAddr: 0x100004DB0, symSize: 0x14 }
  - { offsetInCU: 0x2D9EB, offset: 0x2D9EB, size: 0x8, addend: 0x0, symName: __ZNSt8_Rb_treeIxSt4pairIKxxESt10_Select1stIS2_ESt4lessIxESaIS2_EE8_M_eraseEPSt13_Rb_tree_nodeIS2_E, symObjAddr: 0x1434, symBinAddr: 0x100004D30, symSize: 0x64 }
  - { offsetInCU: 0x2D9F3, offset: 0x2D9F3, size: 0x8, addend: 0x0, symName: __ZNSt8_Rb_treeIxSt4pairIKxxESt10_Select1stIS2_ESt4lessIxESaIS2_EE8_M_beginEv, symObjAddr: 0x1498, symBinAddr: 0x100004D94, symSize: 0x1C }
  - { offsetInCU: 0x2DAB9, offset: 0x2DAB9, size: 0x8, addend: 0x0, symName: __ZNSt15__new_allocatorISt13_Rb_tree_nodeISt4pairIKxxEEED2Ev, symObjAddr: 0x1420, symBinAddr: 0x100004D1C, symSize: 0x14 }
  - { offsetInCU: 0x2DAC1, offset: 0x2DAC1, size: 0x8, addend: 0x0, symName: __ZNSt8_Rb_treeIxSt4pairIKxxESt10_Select1stIS2_ESt4lessIxESaIS2_EE8_M_eraseEPSt13_Rb_tree_nodeIS2_E, symObjAddr: 0x1434, symBinAddr: 0x100004D30, symSize: 0x64 }
  - { offsetInCU: 0x2DAF0, offset: 0x2DAF0, size: 0x8, addend: 0x0, symName: __ZNSt20_Rb_tree_key_compareISt4lessIxEEC2Ev, symObjAddr: 0x140C, symBinAddr: 0x100004D08, symSize: 0x14 }
  - { offsetInCU: 0x2DAF8, offset: 0x2DAF8, size: 0x8, addend: 0x0, symName: __ZNSt15__new_allocatorISt13_Rb_tree_nodeISt4pairIKxxEEED2Ev, symObjAddr: 0x1420, symBinAddr: 0x100004D1C, symSize: 0x14 }
  - { offsetInCU: 0x2DB0B, offset: 0x2DB0B, size: 0x8, addend: 0x0, symName: __ZNSt12_Vector_baseISt4pairIxxESaIS1_EE13_M_deallocateEPS1_m, symObjAddr: 0x13B4, symBinAddr: 0x100004CB0, symSize: 0x58 }
  - { offsetInCU: 0x2DB13, offset: 0x2DB13, size: 0x8, addend: 0x0, symName: __ZNSt20_Rb_tree_key_compareISt4lessIxEEC2Ev, symObjAddr: 0x140C, symBinAddr: 0x100004D08, symSize: 0x14 }
  - { offsetInCU: 0x2DBEF, offset: 0x2DBEF, size: 0x8, addend: 0x0, symName: __ZNSt15__new_allocatorISt4pairIxxEED2Ev, symObjAddr: 0x13A0, symBinAddr: 0x100004C9C, symSize: 0x14 }
  - { offsetInCU: 0x2DBF7, offset: 0x2DBF7, size: 0x8, addend: 0x0, symName: __ZNSt12_Vector_baseISt4pairIxxESaIS1_EE13_M_deallocateEPS1_m, symObjAddr: 0x13B4, symBinAddr: 0x100004CB0, symSize: 0x58 }
  - { offsetInCU: 0x2DC4D, offset: 0x2DC4D, size: 0x8, addend: 0x0, symName: __ZNSt12_Vector_baseISt4pairIxxESaIS1_EE17_Vector_impl_dataC2Ev, symObjAddr: 0x1374, symBinAddr: 0x100004C70, symSize: 0x2C }
  - { offsetInCU: 0x2DC55, offset: 0x2DC55, size: 0x8, addend: 0x0, symName: __ZNSt15__new_allocatorISt4pairIxxEED2Ev, symObjAddr: 0x13A0, symBinAddr: 0x100004C9C, symSize: 0x14 }
  - { offsetInCU: 0x2DCB2, offset: 0x2DCB2, size: 0x8, addend: 0x0, symName: __Z6_printIxJxxxEEvT_DpT0_, symObjAddr: 0x1324, symBinAddr: 0x100004C20, symSize: 0x50 }
  - { offsetInCU: 0x2DCBA, offset: 0x2DCBA, size: 0x8, addend: 0x0, symName: __ZNSt12_Vector_baseISt4pairIxxESaIS1_EE17_Vector_impl_dataC2Ev, symObjAddr: 0x1374, symBinAddr: 0x100004C70, symSize: 0x2C }
  - { offsetInCU: 0x2DD29, offset: 0x2DD29, size: 0x8, addend: 0x0, symName: __Z6_printIxJxiEEvT_DpT0_, symObjAddr: 0x12DC, symBinAddr: 0x100004BD8, symSize: 0x48 }
  - { offsetInCU: 0x2DD31, offset: 0x2DD31, size: 0x8, addend: 0x0, symName: __Z6_printIxJxxxEEvT_DpT0_, symObjAddr: 0x1324, symBinAddr: 0x100004C20, symSize: 0x50 }
  - { offsetInCU: 0x2DD61, offset: 0x2DD61, size: 0x8, addend: 0x0, symName: __ZNSt3mapISt4pairIxxExSt4lessIS1_ESaIS0_IKS1_xEEEixEOS1_, symObjAddr: 0x11D8, symBinAddr: 0x100004AD4, symSize: 0x104 }
  - { offsetInCU: 0x2DD69, offset: 0x2DD69, size: 0x8, addend: 0x0, symName: __Z6_printIxJxiEEvT_DpT0_, symObjAddr: 0x12DC, symBinAddr: 0x100004BD8, symSize: 0x48 }
  - { offsetInCU: 0x2DDFC, offset: 0x2DDFC, size: 0x8, addend: 0x0, symName: __Z6_printIxJixEEvT_DpT0_, symObjAddr: 0x1190, symBinAddr: 0x100004A8C, symSize: 0x48 }
  - { offsetInCU: 0x2DE04, offset: 0x2DE04, size: 0x8, addend: 0x0, symName: __ZNSt3mapISt4pairIxxExSt4lessIS1_ESaIS0_IKS1_xEEEixEOS1_, symObjAddr: 0x11D8, symBinAddr: 0x100004AD4, symSize: 0x104 }
  - { offsetInCU: 0x2DE61, offset: 0x2DE61, size: 0x8, addend: 0x0, symName: __Z6_printIxJEEvT_DpT0_, symObjAddr: 0x116C, symBinAddr: 0x100004A68, symSize: 0x24 }
  - { offsetInCU: 0x2DE69, offset: 0x2DE69, size: 0x8, addend: 0x0, symName: __Z6_printIxJixEEvT_DpT0_, symObjAddr: 0x1190, symBinAddr: 0x100004A8C, symSize: 0x48 }
  - { offsetInCU: 0x2DEC4, offset: 0x2DEC4, size: 0x8, addend: 0x0, symName: __Z6_printIiJxxEEvT_DpT0_, symObjAddr: 0x1124, symBinAddr: 0x100004A20, symSize: 0x48 }
  - { offsetInCU: 0x2DECC, offset: 0x2DECC, size: 0x8, addend: 0x0, symName: __Z6_printIxJEEvT_DpT0_, symObjAddr: 0x116C, symBinAddr: 0x100004A68, symSize: 0x24 }
  - { offsetInCU: 0x2DEFC, offset: 0x2DEFC, size: 0x8, addend: 0x0, symName: __ZNSt3mapIxxSt4lessIxESaISt4pairIKxxEEEixERS3_, symObjAddr: 0x1030, symBinAddr: 0x10000492C, symSize: 0xF4 }
  - { offsetInCU: 0x2DF04, offset: 0x2DF04, size: 0x8, addend: 0x0, symName: __Z6_printIiJxxEEvT_DpT0_, symObjAddr: 0x1124, symBinAddr: 0x100004A20, symSize: 0x48 }
  - { offsetInCU: 0x2DF54, offset: 0x2DF54, size: 0x8, addend: 0x0, symName: __ZNK9__gnu_cxx17__normal_iteratorIPSt4pairIxxESt6vectorIS2_SaIS2_EEEdeEv, symObjAddr: 0x1018, symBinAddr: 0x100004914, symSize: 0x18 }
  - { offsetInCU: 0x2DF5C, offset: 0x2DF5C, size: 0x8, addend: 0x0, symName: __ZNSt3mapIxxSt4lessIxESaISt4pairIKxxEEEixERS3_, symObjAddr: 0x1030, symBinAddr: 0x10000492C, symSize: 0xF4 }
  - { offsetInCU: 0x2DF83, offset: 0x2DF83, size: 0x8, addend: 0x0, symName: __ZN9__gnu_cxx17__normal_iteratorIPSt4pairIxxESt6vectorIS2_SaIS2_EEEppEv, symObjAddr: 0xFF0, symBinAddr: 0x1000048EC, symSize: 0x28 }
  - { offsetInCU: 0x2DF8B, offset: 0x2DF8B, size: 0x8, addend: 0x0, symName: __ZNK9__gnu_cxx17__normal_iteratorIPSt4pairIxxESt6vectorIS2_SaIS2_EEEdeEv, symObjAddr: 0x1018, symBinAddr: 0x100004914, symSize: 0x18 }
  - { offsetInCU: 0x2E07C, offset: 0x2E07C, size: 0x8, addend: 0x0, symName: __ZN9__gnu_cxxneIPSt4pairIxxESt6vectorIS2_SaIS2_EEEEbRKNS_17__normal_iteratorIT_T0_EESC_, symObjAddr: 0xFAC, symBinAddr: 0x1000048A8, symSize: 0x44 }
  - { offsetInCU: 0x2E084, offset: 0x2E084, size: 0x8, addend: 0x0, symName: __ZN9__gnu_cxx17__normal_iteratorIPSt4pairIxxESt6vectorIS2_SaIS2_EEEppEv, symObjAddr: 0xFF0, symBinAddr: 0x1000048EC, symSize: 0x28 }
  - { offsetInCU: 0x2E01F, offset: 0x2E01F, size: 0x8, addend: 0x0, symName: __ZNSt6vectorISt4pairIxxESaIS1_EE3endEv, symObjAddr: 0xF84, symBinAddr: 0x100004880, symSize: 0x28 }
  - { offsetInCU: 0x2E027, offset: 0x2E027, size: 0x8, addend: 0x0, symName: __ZN9__gnu_cxxneIPSt4pairIxxESt6vectorIS2_SaIS2_EEEEbRKNS_17__normal_iteratorIT_T0_EESC_, symObjAddr: 0xFAC, symBinAddr: 0x1000048A8, symSize: 0x44 }
  - { offsetInCU: 0x2E04E, offset: 0x2E04E, size: 0x8, addend: 0x0, symName: __ZNSt6vectorISt4pairIxxESaIS1_EE5beginEv, symObjAddr: 0xF60, symBinAddr: 0x10000485C, symSize: 0x24 }
  - { offsetInCU: 0x2E056, offset: 0x2E056, size: 0x8, addend: 0x0, symName: __ZNSt6vectorISt4pairIxxESaIS1_EE3endEv, symObjAddr: 0xF84, symBinAddr: 0x100004880, symSize: 0x28 }
  - { offsetInCU: 0x2E07D, offset: 0x2E07D, size: 0x8, addend: 0x0, symName: __ZNSt6vectorISt4pairIxxESaIS1_EE9push_backEOS1_, symObjAddr: 0xF30, symBinAddr: 0x10000482C, symSize: 0x30 }
  - { offsetInCU: 0x2E085, offset: 0x2E085, size: 0x8, addend: 0x0, symName: __ZNSt6vectorISt4pairIxxESaIS1_EE5beginEv, symObjAddr: 0xF60, symBinAddr: 0x10000485C, symSize: 0x24 }
  - { offsetInCU: 0x2E139, offset: 0x2E139, size: 0x8, addend: 0x0, symName: __ZNSt4pairIxxEC1IRxS2_Lb1EEEOT_OT0_, symObjAddr: 0xEE8, symBinAddr: 0x1000047E4, symSize: 0x48 }
  - { offsetInCU: 0x2E141, offset: 0x2E141, size: 0x8, addend: 0x0, symName: __ZNSt6vectorISt4pairIxxESaIS1_EE9push_backEOS1_, symObjAddr: 0xF30, symBinAddr: 0x10000482C, symSize: 0x30 }
  - { offsetInCU: 0x2E1EC, offset: 0x2E1EC, size: 0x8, addend: 0x0, symName: __ZNSt8_Rb_treeISt4pairIxxES0_IKS1_xESt10_Select1stIS3_ESt4lessIS1_ESaIS3_EED1Ev, symObjAddr: 0xEB4, symBinAddr: 0x1000047B0, symSize: 0x34 }
  - { offsetInCU: 0x2E1F4, offset: 0x2E1F4, size: 0x8, addend: 0x0, symName: __ZNSt4pairIxxEC1IRxS2_Lb1EEEOT_OT0_, symObjAddr: 0xEE8, symBinAddr: 0x1000047E4, symSize: 0x48 }
  - { offsetInCU: 0x2E272, offset: 0x2E272, size: 0x8, addend: 0x0, symName: __ZNSt8_Rb_treeISt4pairIxxES0_IKS1_xESt10_Select1stIS3_ESt4lessIS1_ESaIS3_EE13_Rb_tree_implIS7_Lb1EEC1Ev, symObjAddr: 0xE70, symBinAddr: 0x10000476C, symSize: 0x44 }
  - { offsetInCU: 0x2E27A, offset: 0x2E27A, size: 0x8, addend: 0x0, symName: __ZNSt8_Rb_treeISt4pairIxxES0_IKS1_xESt10_Select1stIS3_ESt4lessIS1_ESaIS3_EED1Ev, symObjAddr: 0xEB4, symBinAddr: 0x1000047B0, symSize: 0x34 }
  - { offsetInCU: 0x2E2F1, offset: 0x2E2F1, size: 0x8, addend: 0x0, symName: __ZNSt8_Rb_treeIxSt4pairIKxxESt10_Select1stIS2_ESt4lessIxESaIS2_EED1Ev, symObjAddr: 0xE3C, symBinAddr: 0x100004738, symSize: 0x34 }
  - { offsetInCU: 0x2E2F9, offset: 0x2E2F9, size: 0x8, addend: 0x0, symName: __ZNSt8_Rb_treeISt4pairIxxES0_IKS1_xESt10_Select1stIS3_ESt4lessIS1_ESaIS3_EE13_Rb_tree_implIS7_Lb1EEC1Ev, symObjAddr: 0xE70, symBinAddr: 0x10000476C, symSize: 0x44 }
  - { offsetInCU: 0x2E377, offset: 0x2E377, size: 0x8, addend: 0x0, symName: __ZNSt8_Rb_treeIxSt4pairIKxxESt10_Select1stIS2_ESt4lessIxESaIS2_EE13_Rb_tree_implIS6_Lb1EEC1Ev, symObjAddr: 0xDF8, symBinAddr: 0x1000046F4, symSize: 0x44 }
  - { offsetInCU: 0x2E37F, offset: 0x2E37F, size: 0x8, addend: 0x0, symName: __ZNSt8_Rb_treeIxSt4pairIKxxESt10_Select1stIS2_ESt4lessIxESaIS2_EED1Ev, symObjAddr: 0xE3C, symBinAddr: 0x100004738, symSize: 0x34 }
  - { offsetInCU: 0x2E3E6, offset: 0x2E3E6, size: 0x8, addend: 0x0, symName: __ZNSt12_Vector_baseISt4pairIxxESaIS1_EED2Ev, symObjAddr: 0xDA8, symBinAddr: 0x1000046A4, symSize: 0x50 }
  - { offsetInCU: 0x2E3EE, offset: 0x2E3EE, size: 0x8, addend: 0x0, symName: __ZNSt8_Rb_treeIxSt4pairIKxxESt10_Select1stIS2_ESt4lessIxESaIS2_EE13_Rb_tree_implIS6_Lb1EEC1Ev, symObjAddr: 0xDF8, symBinAddr: 0x1000046F4, symSize: 0x44 }
  - { offsetInCU: 0x2E462, offset: 0x2E462, size: 0x8, addend: 0x0, symName: __ZNSt12_Vector_baseISt4pairIxxESaIS1_EE12_Vector_implC1Ev, symObjAddr: 0xD70, symBinAddr: 0x10000466C, symSize: 0x38 }
  - { offsetInCU: 0x2E46A, offset: 0x2E46A, size: 0x8, addend: 0x0, symName: __ZNSt12_Vector_baseISt4pairIxxESaIS1_EED2Ev, symObjAddr: 0xDA8, symBinAddr: 0x1000046A4, symSize: 0x50 }
  - { offsetInCU: 0x2E4D4, offset: 0x2E4D4, size: 0x8, addend: 0x0, symName: __ZSt3maxImERKT_S2_S2_, symObjAddr: 0xD38, symBinAddr: 0x100004634, symSize: 0x38 }
  - { offsetInCU: 0x2E4DC, offset: 0x2E4DC, size: 0x8, addend: 0x0, symName: __ZNSt12_Vector_baseISt4pairIxxESaIS1_EE12_Vector_implC1Ev, symObjAddr: 0xD70, symBinAddr: 0x10000466C, symSize: 0x38 }
  - { offsetInCU: 0x2E50C, offset: 0x2E50C, size: 0x8, addend: 0x0, symName: _main, symObjAddr: 0x538, symBinAddr: 0x100003E34, symSize: 0x800 }
  - { offsetInCU: 0x2E514, offset: 0x2E514, size: 0x8, addend: 0x0, symName: __ZSt3maxImERKT_S2_S2_, symObjAddr: 0xD38, symBinAddr: 0x100004634, symSize: 0x38 }
  - { offsetInCU: 0x2E863, offset: 0x2E863, size: 0x8, addend: 0x0, symName: __ZNSt10__pair_getILm1EE10__move_getIxxEEOT0_OSt4pairIT_S2_E, symObjAddr: 0x518, symBinAddr: 0x100003E14, symSize: 0x20 }
  - { offsetInCU: 0x2E86B, offset: 0x2E86B, size: 0x8, addend: 0x0, symName: _main, symObjAddr: 0x538, symBinAddr: 0x100003E34, symSize: 0x800 }
  - { offsetInCU: 0x2E91C, offset: 0x2E91C, size: 0x8, addend: 0x0, symName: __ZSt3getILm1ExxEONSt13tuple_elementIXT_ESt4pairIT0_T1_EE4typeEOS4_, symObjAddr: 0x4F8, symBinAddr: 0x100003DF4, symSize: 0x20 }
  - { offsetInCU: 0x2E924, offset: 0x2E924, size: 0x8, addend: 0x0, symName: __ZNSt10__pair_getILm1EE10__move_getIxxEEOT0_OSt4pairIT_S2_E, symObjAddr: 0x518, symBinAddr: 0x100003E14, symSize: 0x20 }
  - { offsetInCU: 0x2E965, offset: 0x2E965, size: 0x8, addend: 0x0, symName: __ZSt7forwardIxEOT_RNSt16remove_referenceIS0_E4typeE, symObjAddr: 0x4E4, symBinAddr: 0x100003DE0, symSize: 0x14 }
  - { offsetInCU: 0x2E96D, offset: 0x2E96D, size: 0x8, addend: 0x0, symName: __ZSt3getILm1ExxEONSt13tuple_elementIXT_ESt4pairIT0_T1_EE4typeEOS4_, symObjAddr: 0x4F8, symBinAddr: 0x100003DF4, symSize: 0x20 }
  - { offsetInCU: 0x2E96A, offset: 0x2E96A, size: 0x8, addend: 0x0, symName: __ZNSt10__pair_getILm0EE10__move_getIxxEEOT_OSt4pairIS2_T0_E, symObjAddr: 0x4C8, symBinAddr: 0x100003DC4, symSize: 0x1C }
  - { offsetInCU: 0x2E972, offset: 0x2E972, size: 0x8, addend: 0x0, symName: __ZSt7forwardIxEOT_RNSt16remove_referenceIS0_E4typeE, symObjAddr: 0x4E4, symBinAddr: 0x100003DE0, symSize: 0x14 }
  - { offsetInCU: 0x2EA25, offset: 0x2EA25, size: 0x8, addend: 0x0, symName: __ZSt4moveIRSt4pairIxxEEONSt16remove_referenceIT_E4typeEOS4_, symObjAddr: 0x4B4, symBinAddr: 0x100003DB0, symSize: 0x14 }
  - { offsetInCU: 0x2EA2D, offset: 0x2EA2D, size: 0x8, addend: 0x0, symName: __ZNSt10__pair_getILm0EE10__move_getIxxEEOT_OSt4pairIS2_T0_E, symObjAddr: 0x4C8, symBinAddr: 0x100003DC4, symSize: 0x1C }
  - { offsetInCU: 0x2EA77, offset: 0x2EA77, size: 0x8, addend: 0x0, symName: __ZSt3getILm0ExxEONSt13tuple_elementIXT_ESt4pairIT0_T1_EE4typeEOS4_, symObjAddr: 0x494, symBinAddr: 0x100003D90, symSize: 0x20 }
  - { offsetInCU: 0x2EA7F, offset: 0x2EA7F, size: 0x8, addend: 0x0, symName: __ZSt4moveIRSt4pairIxxEEONSt16remove_referenceIT_E4typeEOS4_, symObjAddr: 0x4B4, symBinAddr: 0x100003DB0, symSize: 0x14 }
  - { offsetInCU: 0x2EAC0, offset: 0x2EAC0, size: 0x8, addend: 0x0, symName: __ZNSt3mapISt4pairIxxExSt4lessIS1_ESaIS0_IKS1_xEEEC1Ev, symObjAddr: 0x474, symBinAddr: 0x100003D70, symSize: 0x20 }
  - { offsetInCU: 0x2EAC8, offset: 0x2EAC8, size: 0x8, addend: 0x0, symName: __ZSt3getILm0ExxEONSt13tuple_elementIXT_ESt4pairIT0_T1_EE4typeEOS4_, symObjAddr: 0x494, symBinAddr: 0x100003D90, symSize: 0x20 }
  - { offsetInCU: 0x2EB21, offset: 0x2EB21, size: 0x8, addend: 0x0, symName: __ZNSt8_Rb_treeISt4pairIxxES0_IKS1_xESt10_Select1stIS3_ESt4lessIS1_ESaIS3_EEC1Ev, symObjAddr: 0x454, symBinAddr: 0x100003D50, symSize: 0x20 }
  - { offsetInCU: 0x2EB29, offset: 0x2EB29, size: 0x8, addend: 0x0, symName: __ZNSt3mapISt4pairIxxExSt4lessIS1_ESaIS0_IKS1_xEEEC1Ev, symObjAddr: 0x474, symBinAddr: 0x100003D70, symSize: 0x20 }
  - { offsetInCU: 0x2EB93, offset: 0x2EB93, size: 0x8, addend: 0x0, symName: __ZNSt8_Rb_treeISt4pairIxxES0_IKS1_xESt10_Select1stIS3_ESt4lessIS1_ESaIS3_EE13_Rb_tree_implIS7_Lb1EED1Ev, symObjAddr: 0x428, symBinAddr: 0x100003D24, symSize: 0x2C }
  - { offsetInCU: 0x2EB9B, offset: 0x2EB9B, size: 0x8, addend: 0x0, symName: __ZNSt8_Rb_treeISt4pairIxxES0_IKS1_xESt10_Select1stIS3_ESt4lessIS1_ESaIS3_EEC1Ev, symObjAddr: 0x454, symBinAddr: 0x100003D50, symSize: 0x20 }
  - { offsetInCU: 0x2EBC4, offset: 0x2EBC4, size: 0x8, addend: 0x0, symName: __ZNSt3mapIxxSt4lessIxESaISt4pairIKxxEEEC1Ev, symObjAddr: 0x408, symBinAddr: 0x100003D04, symSize: 0x20 }
  - { offsetInCU: 0x2EBCC, offset: 0x2EBCC, size: 0x8, addend: 0x0, symName: __ZNSt8_Rb_treeISt4pairIxxES0_IKS1_xESt10_Select1stIS3_ESt4lessIS1_ESaIS3_EE13_Rb_tree_implIS7_Lb1EED1Ev, symObjAddr: 0x428, symBinAddr: 0x100003D24, symSize: 0x2C }
  - { offsetInCU: 0x2EC25, offset: 0x2EC25, size: 0x8, addend: 0x0, symName: __ZNSt8_Rb_treeIxSt4pairIKxxESt10_Select1stIS2_ESt4lessIxESaIS2_EEC1Ev, symObjAddr: 0x3E8, symBinAddr: 0x100003CE4, symSize: 0x20 }
  - { offsetInCU: 0x2EC2D, offset: 0x2EC2D, size: 0x8, addend: 0x0, symName: __ZNSt3mapIxxSt4lessIxESaISt4pairIKxxEEEC1Ev, symObjAddr: 0x408, symBinAddr: 0x100003D04, symSize: 0x20 }
  - { offsetInCU: 0x2EC97, offset: 0x2EC97, size: 0x8, addend: 0x0, symName: __ZNSt8_Rb_treeIxSt4pairIKxxESt10_Select1stIS2_ESt4lessIxESaIS2_EE13_Rb_tree_implIS6_Lb1EED1Ev, symObjAddr: 0x3BC, symBinAddr: 0x100003CB8, symSize: 0x2C }
  - { offsetInCU: 0x2EC9F, offset: 0x2EC9F, size: 0x8, addend: 0x0, symName: __ZNSt8_Rb_treeIxSt4pairIKxxESt10_Select1stIS2_ESt4lessIxESaIS2_EEC1Ev, symObjAddr: 0x3E8, symBinAddr: 0x100003CE4, symSize: 0x20 }
  - { offsetInCU: 0x2ECCB, offset: 0x2ECCB, size: 0x8, addend: 0x0, symName: __ZNSt6vectorISt4pairIxxESaIS1_EEC1Ev, symObjAddr: 0x39C, symBinAddr: 0x100003C98, symSize: 0x20 }
  - { offsetInCU: 0x2ECD3, offset: 0x2ECD3, size: 0x8, addend: 0x0, symName: __ZNSt8_Rb_treeIxSt4pairIKxxESt10_Select1stIS2_ESt4lessIxESaIS2_EE13_Rb_tree_implIS6_Lb1EED1Ev, symObjAddr: 0x3BC, symBinAddr: 0x100003CB8, symSize: 0x2C }
  - { offsetInCU: 0x2ED19, offset: 0x2ED19, size: 0x8, addend: 0x0, symName: __ZNSt12_Vector_baseISt4pairIxxESaIS1_EEC2Ev, symObjAddr: 0x37C, symBinAddr: 0x100003C78, symSize: 0x20 }
  - { offsetInCU: 0x2ED21, offset: 0x2ED21, size: 0x8, addend: 0x0, symName: __ZNSt6vectorISt4pairIxxESaIS1_EEC1Ev, symObjAddr: 0x39C, symBinAddr: 0x100003C98, symSize: 0x20 }
  - { offsetInCU: 0x2ED80, offset: 0x2ED80, size: 0x8, addend: 0x0, symName: __ZNSt12_Vector_baseISt4pairIxxESaIS1_EE12_Vector_implD1Ev, symObjAddr: 0x350, symBinAddr: 0x100003C4C, symSize: 0x2C }
  - { offsetInCU: 0x2ED88, offset: 0x2ED88, size: 0x8, addend: 0x0, symName: __ZNSt12_Vector_baseISt4pairIxxESaIS1_EEC2Ev, symObjAddr: 0x37C, symBinAddr: 0x100003C78, symSize: 0x20 }
  - { offsetInCU: 0x2EDAD, offset: 0x2EDAD, size: 0x8, addend: 0x0, symName: __Z6_printv, symObjAddr: 0x328, symBinAddr: 0x100003C24, symSize: 0x28 }
  - { offsetInCU: 0x2EDB5, offset: 0x2EDB5, size: 0x8, addend: 0x0, symName: __ZNSt12_Vector_baseISt4pairIxxESaIS1_EE12_Vector_implD1Ev, symObjAddr: 0x350, symBinAddr: 0x100003C4C, symSize: 0x2C }
  - { offsetInCU: 0x2EDCC, offset: 0x2EDCC, size: 0x8, addend: 0x0, symName: __Z7__printb, symObjAddr: 0x2DC, symBinAddr: 0x100003BD8, symSize: 0x4C }
  - { offsetInCU: 0x2EDD4, offset: 0x2EDD4, size: 0x8, addend: 0x0, symName: __Z6_printv, symObjAddr: 0x328, symBinAddr: 0x100003C24, symSize: 0x28 }
  - { offsetInCU: 0x2EE37, offset: 0x2EE37, size: 0x8, addend: 0x0, symName: __Z7__printRKNSt7__cxx1112basic_stringIcSt11char_traitsIcESaIcEEE, symObjAddr: 0x2A4, symBinAddr: 0x100003BA0, symSize: 0x38 }
  - { offsetInCU: 0x2EE3F, offset: 0x2EE3F, size: 0x8, addend: 0x0, symName: __Z7__printb, symObjAddr: 0x2DC, symBinAddr: 0x100003BD8, symSize: 0x4C }
  - { offsetInCU: 0x2EE3A, offset: 0x2EE3A, size: 0x8, addend: 0x0, symName: __Z7__printPKc, symObjAddr: 0x26C, symBinAddr: 0x100003B68, symSize: 0x38 }
  - { offsetInCU: 0x2EE42, offset: 0x2EE42, size: 0x8, addend: 0x0, symName: __Z7__printRKNSt7__cxx1112basic_stringIcSt11char_traitsIcESaIcEEE, symObjAddr: 0x2A4, symBinAddr: 0x100003BA0, symSize: 0x38 }
  - { offsetInCU: 0x2EE6E, offset: 0x2EE6E, size: 0x8, addend: 0x0, symName: __Z7__printc, symObjAddr: 0x234, symBinAddr: 0x100003B30, symSize: 0x38 }
  - { offsetInCU: 0x2EE76, offset: 0x2EE76, size: 0x8, addend: 0x0, symName: __Z7__printPKc, symObjAddr: 0x26C, symBinAddr: 0x100003B68, symSize: 0x38 }
  - { offsetInCU: 0x2EEA4, offset: 0x2EEA4, size: 0x8, addend: 0x0, symName: __Z7__printe, symObjAddr: 0x20C, symBinAddr: 0x100003B08, symSize: 0x28 }
  - { offsetInCU: 0x2EEAC, offset: 0x2EEAC, size: 0x8, addend: 0x0, symName: __Z7__printc, symObjAddr: 0x234, symBinAddr: 0x100003B30, symSize: 0x38 }
  - { offsetInCU: 0x2EEDA, offset: 0x2EEDA, size: 0x8, addend: 0x0, symName: __Z7__printd, symObjAddr: 0x1E4, symBinAddr: 0x100003AE0, symSize: 0x28 }
  - { offsetInCU: 0x2EEE2, offset: 0x2EEE2, size: 0x8, addend: 0x0, symName: __Z7__printe, symObjAddr: 0x20C, symBinAddr: 0x100003B08, symSize: 0x28 }
  - { offsetInCU: 0x2EF10, offset: 0x2EF10, size: 0x8, addend: 0x0, symName: __Z7__printf, symObjAddr: 0x1BC, symBinAddr: 0x100003AB8, symSize: 0x28 }
  - { offsetInCU: 0x2EF18, offset: 0x2EF18, size: 0x8, addend: 0x0, symName: __Z7__printd, symObjAddr: 0x1E4, symBinAddr: 0x100003AE0, symSize: 0x28 }
  - { offsetInCU: 0x2EF46, offset: 0x2EF46, size: 0x8, addend: 0x0, symName: __Z7__printy, symObjAddr: 0x194, symBinAddr: 0x100003A90, symSize: 0x28 }
  - { offsetInCU: 0x2EF4E, offset: 0x2EF4E, size: 0x8, addend: 0x0, symName: __Z7__printf, symObjAddr: 0x1BC, symBinAddr: 0x100003AB8, symSize: 0x28 }
  - { offsetInCU: 0x2EF7C, offset: 0x2EF7C, size: 0x8, addend: 0x0, symName: __Z7__printm, symObjAddr: 0x16C, symBinAddr: 0x100003A68, symSize: 0x28 }
  - { offsetInCU: 0x2EF84, offset: 0x2EF84, size: 0x8, addend: 0x0, symName: __Z7__printy, symObjAddr: 0x194, symBinAddr: 0x100003A90, symSize: 0x28 }
  - { offsetInCU: 0x2EFB2, offset: 0x2EFB2, size: 0x8, addend: 0x0, symName: __Z7__printj, symObjAddr: 0x144, symBinAddr: 0x100003A40, symSize: 0x28 }
  - { offsetInCU: 0x2EFBA, offset: 0x2EFBA, size: 0x8, addend: 0x0, symName: __Z7__printm, symObjAddr: 0x16C, symBinAddr: 0x100003A68, symSize: 0x28 }
  - { offsetInCU: 0x2EFE8, offset: 0x2EFE8, size: 0x8, addend: 0x0, symName: __Z7__printx, symObjAddr: 0x11C, symBinAddr: 0x100003A18, symSize: 0x28 }
  - { offsetInCU: 0x2EFF0, offset: 0x2EFF0, size: 0x8, addend: 0x0, symName: __Z7__printj, symObjAddr: 0x144, symBinAddr: 0x100003A40, symSize: 0x28 }
  - { offsetInCU: 0x2F01E, offset: 0x2F01E, size: 0x8, addend: 0x0, symName: __Z7__printl, symObjAddr: 0xF4, symBinAddr: 0x1000039F0, symSize: 0x28 }
  - { offsetInCU: 0x2F026, offset: 0x2F026, size: 0x8, addend: 0x0, symName: __Z7__printx, symObjAddr: 0x11C, symBinAddr: 0x100003A18, symSize: 0x28 }
  - { offsetInCU: 0x2F054, offset: 0x2F054, size: 0x8, addend: 0x0, symName: __Z7__printi, symObjAddr: 0xCC, symBinAddr: 0x1000039C8, symSize: 0x28 }
  - { offsetInCU: 0x2F05C, offset: 0x2F05C, size: 0x8, addend: 0x0, symName: __Z7__printl, symObjAddr: 0xF4, symBinAddr: 0x1000039F0, symSize: 0x28 }
  - { offsetInCU: 0x2F07A, offset: 0x2F07A, size: 0x8, addend: 0x0, symName: __ZNSt15_Rb_tree_header8_M_resetEv, symObjAddr: 0x90, symBinAddr: 0x10000398C, symSize: 0x3C }
  - { offsetInCU: 0x2F082, offset: 0x2F082, size: 0x8, addend: 0x0, symName: __Z7__printi, symObjAddr: 0xCC, symBinAddr: 0x1000039C8, symSize: 0x28 }
  - { offsetInCU: 0x2F0DD, offset: 0x2F0DD, size: 0x8, addend: 0x0, symName: __ZNSt15_Rb_tree_headerC2Ev, symObjAddr: 0x68, symBinAddr: 0x100003964, symSize: 0x28 }
  - { offsetInCU: 0x2F0E5, offset: 0x2F0E5, size: 0x8, addend: 0x0, symName: __ZNSt15_Rb_tree_header8_M_resetEv, symObjAddr: 0x90, symBinAddr: 0x10000398C, symSize: 0x3C }
  - { offsetInCU: 0x2F121, offset: 0x2F121, size: 0x8, addend: 0x0, symName: __ZSt3minImERKT_S2_S2_, symObjAddr: 0x30, symBinAddr: 0x10000392C, symSize: 0x38 }
  - { offsetInCU: 0x2F129, offset: 0x2F129, size: 0x8, addend: 0x0, symName: __ZNSt15_Rb_tree_headerC2Ev, symObjAddr: 0x68, symBinAddr: 0x100003964, symSize: 0x28 }
  - { offsetInCU: 0x2F15A, offset: 0x2F15A, size: 0x8, addend: 0x0, symName: __ZdlPvS_, symObjAddr: 0x18, symBinAddr: 0x100003914, symSize: 0x18 }
  - { offsetInCU: 0x2F162, offset: 0x2F162, size: 0x8, addend: 0x0, symName: __ZSt3minImERKT_S2_S2_, symObjAddr: 0x30, symBinAddr: 0x10000392C, symSize: 0x38 }
  - { offsetInCU: 0x2F19B, offset: 0x2F19B, size: 0x8, addend: 0x0, symName: __ZnwmPv, symObjAddr: 0x0, symBinAddr: 0x1000038FC, symSize: 0x18 }
  - { offsetInCU: 0x2F1A3, offset: 0x2F1A3, size: 0x8, addend: 0x0, symName: __ZdlPvS_, symObjAddr: 0x18, symBinAddr: 0x100003914, symSize: 0x18 }
...
