---
triple:          'arm64-apple-darwin'
binary-path:     s
relocations:
  - { offsetInCU: 0xA2, offset: 0xA2, size: 0x8, addend: 0x0, symName: __ZnwmPv, symObjAddr: 0x0, symBinAddr: 0x100003C8C, symSize: 0x18 }
  - { offsetInCU: 0x11D7F, offset: 0x11D7F, size: 0x8, addend: 0x0, symName: __ZStL8__ioinit, symObjAddr: 0x72708, symBinAddr: 0x10000C004, symSize: 0x0 }
  - { offsetInCU: 0x127E1, offset: 0x127E1, size: 0x8, addend: 0x0, symName: __ZL1N, symObjAddr: 0x2740, symBinAddr: 0x1000067C0, symSize: 0x0 }
  - { offsetInCU: 0x127FD, offset: 0x127FD, size: 0x8, addend: 0x0, symName: _n, symObjAddr: 0x72710, symBinAddr: 0x10000C008, symSize: 0x0 }
  - { offsetInCU: 0x1281C, offset: 0x1281C, size: 0x8, addend: 0x0, symName: _bound, symObjAddr: 0x72718, symBinAddr: 0x10000C010, symSize: 0x0 }
  - { offsetInCU: 0x143AE, offset: 0x143AE, size: 0x8, addend: 0x0, symName: _a, symObjAddr: 0x72720, symBinAddr: 0x10000C018, symSize: 0x0 }
  - { offsetInCU: 0x14411, offset: 0x14411, size: 0x8, addend: 0x0, symName: _st, symObjAddr: 0x72738, symBinAddr: 0x10000C030, symSize: 0x0 }
  - { offsetInCU: 0x14F4F, offset: 0x14F4F, size: 0x8, addend: 0x0, symName: __ZNSt8__detail30__integer_to_chars_is_unsignedIjEE, symObjAddr: 0x2748, symBinAddr: 0x1000067C8, symSize: 0x0 }
  - { offsetInCU: 0x14F69, offset: 0x14F69, size: 0x8, addend: 0x0, symName: __ZNSt8__detail30__integer_to_chars_is_unsignedImEE, symObjAddr: 0x2749, symBinAddr: 0x1000067C9, symSize: 0x0 }
  - { offsetInCU: 0x14F83, offset: 0x14F83, size: 0x8, addend: 0x0, symName: __ZNSt8__detail30__integer_to_chars_is_unsignedIyEE, symObjAddr: 0x274A, symBinAddr: 0x1000067CA, symSize: 0x0 }
  - { offsetInCU: 0x150AE, offset: 0x150AE, size: 0x8, addend: 0x0, symName: __ZNSt8__detail30__integer_to_chars_is_unsignedIoEE, symObjAddr: 0x274B, symBinAddr: 0x1000067CB, symSize: 0x0 }
  - { offsetInCU: 0x15105, offset: 0x15105, size: 0x8, addend: 0x0, symName: __GLOBAL__sub_I_s.cpp, symObjAddr: 0x26F4, symBinAddr: 0x100006380, symSize: 0x14 }
  - { offsetInCU: 0x15153, offset: 0x15153, size: 0x8, addend: 0x0, symName: __ZNSt6vectorI5QuerySaIS0_EED1Ev, symObjAddr: 0x2698, symBinAddr: 0x100006324, symSize: 0x5C }
  - { offsetInCU: 0x1515B, offset: 0x1515B, size: 0x8, addend: 0x0, symName: __GLOBAL__sub_I_s.cpp, symObjAddr: 0x26F4, symBinAddr: 0x100006380, symSize: 0x14 }
  - { offsetInCU: 0x151C7, offset: 0x151C7, size: 0x8, addend: 0x0, symName: __Z41__static_initialization_and_destruction_0v, symObjAddr: 0x2634, symBinAddr: 0x1000062C0, symSize: 0x64 }
  - { offsetInCU: 0x151CF, offset: 0x151CF, size: 0x8, addend: 0x0, symName: __ZNSt6vectorI5QuerySaIS0_EED1Ev, symObjAddr: 0x2698, symBinAddr: 0x100006324, symSize: 0x5C }
  - { offsetInCU: 0x151B9, offset: 0x151B9, size: 0x8, addend: 0x0, symName: __ZNSt11__copy_moveILb1ELb0ESt26random_access_iterator_tagE12__assign_oneI5QueryS3_EEvPT_PT0_, symObjAddr: 0x2600, symBinAddr: 0x10000628C, symSize: 0x34 }
  - { offsetInCU: 0x151C1, offset: 0x151C1, size: 0x8, addend: 0x0, symName: __Z41__static_initialization_and_destruction_0v, symObjAddr: 0x2634, symBinAddr: 0x1000062C0, symSize: 0x64 }
  - { offsetInCU: 0x15219, offset: 0x15219, size: 0x8, addend: 0x0, symName: __ZNSt20__copy_move_backwardILb1ELb1ESt26random_access_iterator_tagE13__copy_move_bI5QueryS3_EEPT0_PT_S7_S5_, symObjAddr: 0x2554, symBinAddr: 0x1000061E0, symSize: 0xAC }
  - { offsetInCU: 0x15221, offset: 0x15221, size: 0x8, addend: 0x0, symName: __ZNSt11__copy_moveILb1ELb0ESt26random_access_iterator_tagE12__assign_oneI5QueryS3_EEvPT_PT0_, symObjAddr: 0x2600, symBinAddr: 0x10000628C, symSize: 0x34 }
  - { offsetInCU: 0x152A1, offset: 0x152A1, size: 0x8, addend: 0x0, symName: __ZN9__gnu_cxx5__ops14_Iter_comp_valIZ9solveRectvEUl5QueryS2_E_EclINS_17__normal_iteratorIPS2_St6vectorIS2_SaIS2_EEEES2_EEbT_RT0_, symObjAddr: 0x24E8, symBinAddr: 0x100006174, symSize: 0x6C }
  - { offsetInCU: 0x152A9, offset: 0x152A9, size: 0x8, addend: 0x0, symName: __ZNSt20__copy_move_backwardILb1ELb1ESt26random_access_iterator_tagE13__copy_move_bI5QueryS3_EEPT0_PT_S7_S5_, symObjAddr: 0x2554, symBinAddr: 0x1000061E0, symSize: 0xAC }
  - { offsetInCU: 0x15396, offset: 0x15396, size: 0x8, addend: 0x0, symName: __ZSt23__copy_move_backward_a2ILb1EP5QueryS1_ET1_T0_S3_S2_, symObjAddr: 0x24BC, symBinAddr: 0x100006148, symSize: 0x2C }
  - { offsetInCU: 0x1539E, offset: 0x1539E, size: 0x8, addend: 0x0, symName: __ZN9__gnu_cxx5__ops14_Iter_comp_valIZ9solveRectvEUl5QueryS2_E_EclINS_17__normal_iteratorIPS2_St6vectorIS2_SaIS2_EEEES2_EEbT_RT0_, symObjAddr: 0x24E8, symBinAddr: 0x100006174, symSize: 0x6C }
  - { offsetInCU: 0x15459, offset: 0x15459, size: 0x8, addend: 0x0, symName: __ZSt11__push_heapIN9__gnu_cxx17__normal_iteratorIP5QuerySt6vectorIS2_SaIS2_EEEElS2_NS0_5__ops14_Iter_comp_valIZ9solveRectvEUlS2_S2_E_EEEvT_T0_SD_T1_RT2_, symObjAddr: 0x2388, symBinAddr: 0x100006014, symSize: 0x134 }
  - { offsetInCU: 0x15461, offset: 0x15461, size: 0x8, addend: 0x0, symName: __ZSt23__copy_move_backward_a2ILb1EP5QueryS1_ET1_T0_S3_S2_, symObjAddr: 0x24BC, symBinAddr: 0x100006148, symSize: 0x2C }
  - { offsetInCU: 0x154AF, offset: 0x154AF, size: 0x8, addend: 0x0, symName: __ZN9__gnu_cxx5__ops14_Iter_comp_valIZ9solveRectvEUl5QueryS2_E_EC1EONS0_15_Iter_comp_iterIS3_EE, symObjAddr: 0x2364, symBinAddr: 0x100005FF0, symSize: 0x24 }
  - { offsetInCU: 0x154B7, offset: 0x154B7, size: 0x8, addend: 0x0, symName: __ZSt11__push_heapIN9__gnu_cxx17__normal_iteratorIP5QuerySt6vectorIS2_SaIS2_EEEElS2_NS0_5__ops14_Iter_comp_valIZ9solveRectvEUlS2_S2_E_EEEvT_T0_SD_T1_RT2_, symObjAddr: 0x2388, symBinAddr: 0x100006014, symSize: 0x134 }
  - { offsetInCU: 0x155CB, offset: 0x155CB, size: 0x8, addend: 0x0, symName: __ZSt12__niter_wrapIN9__gnu_cxx17__normal_iteratorIP5QuerySt6vectorIS2_SaIS2_EEEES3_ET_S8_T0_, symObjAddr: 0x2328, symBinAddr: 0x100005FB4, symSize: 0x3C }
  - { offsetInCU: 0x155D3, offset: 0x155D3, size: 0x8, addend: 0x0, symName: __ZN9__gnu_cxx5__ops14_Iter_comp_valIZ9solveRectvEUl5QueryS2_E_EC1EONS0_15_Iter_comp_iterIS3_EE, symObjAddr: 0x2364, symBinAddr: 0x100005FF0, symSize: 0x24 }
  - { offsetInCU: 0x155F3, offset: 0x155F3, size: 0x8, addend: 0x0, symName: __ZSt23__copy_move_backward_a1ILb1EP5QueryS1_ET1_T0_S3_S2_, symObjAddr: 0x22FC, symBinAddr: 0x100005F88, symSize: 0x2C }
  - { offsetInCU: 0x155FB, offset: 0x155FB, size: 0x8, addend: 0x0, symName: __ZSt12__niter_wrapIN9__gnu_cxx17__normal_iteratorIP5QuerySt6vectorIS2_SaIS2_EEEES3_ET_S8_T0_, symObjAddr: 0x2328, symBinAddr: 0x100005FB4, symSize: 0x3C }
  - { offsetInCU: 0x1569E, offset: 0x1569E, size: 0x8, addend: 0x0, symName: __ZSt12__niter_baseIP5QuerySt6vectorIS0_SaIS0_EEET_N9__gnu_cxx17__normal_iteratorIS5_T0_EE, symObjAddr: 0x22DC, symBinAddr: 0x100005F68, symSize: 0x20 }
  - { offsetInCU: 0x156A6, offset: 0x156A6, size: 0x8, addend: 0x0, symName: __ZSt23__copy_move_backward_a1ILb1EP5QueryS1_ET1_T0_S3_S2_, symObjAddr: 0x22FC, symBinAddr: 0x100005F88, symSize: 0x2C }
  - { offsetInCU: 0x1571C, offset: 0x1571C, size: 0x8, addend: 0x0, symName: __ZSt4swapI5QueryENSt9enable_ifIXsrSt6__and_IJSt6__not_ISt15__is_tuple_likeIT_EESt21is_move_constructibleIS5_ESt18is_move_assignableIS5_EEE5valueEvE4typeERS5_SF_, symObjAddr: 0x2278, symBinAddr: 0x100005F04, symSize: 0x64 }
  - { offsetInCU: 0x15724, offset: 0x15724, size: 0x8, addend: 0x0, symName: __ZSt12__niter_baseIP5QuerySt6vectorIS0_SaIS0_EEET_N9__gnu_cxx17__normal_iteratorIS5_T0_EE, symObjAddr: 0x22DC, symBinAddr: 0x100005F68, symSize: 0x20 }
  - { offsetInCU: 0x1577A, offset: 0x1577A, size: 0x8, addend: 0x0, symName: __ZSt13__adjust_heapIN9__gnu_cxx17__normal_iteratorIP5QuerySt6vectorIS2_SaIS2_EEEElS2_NS0_5__ops15_Iter_comp_iterIZ9solveRectvEUlS2_S2_E_EEEvT_T0_SD_T1_T2_, symObjAddr: 0x2080, symBinAddr: 0x100005D0C, symSize: 0x1F8 }
  - { offsetInCU: 0x15782, offset: 0x15782, size: 0x8, addend: 0x0, symName: __ZSt4swapI5QueryENSt9enable_ifIXsrSt6__and_IJSt6__not_ISt15__is_tuple_likeIT_EESt21is_move_constructibleIS5_ESt18is_move_assignableIS5_EEE5valueEvE4typeERS5_SF_, symObjAddr: 0x2278, symBinAddr: 0x100005F04, symSize: 0x64 }
  - { offsetInCU: 0x157C3, offset: 0x157C3, size: 0x8, addend: 0x0, symName: __ZNSt12_Destroy_auxILb1EE9__destroyIP5QueryEEvT_S4_, symObjAddr: 0x2068, symBinAddr: 0x100005CF4, symSize: 0x18 }
  - { offsetInCU: 0x157CB, offset: 0x157CB, size: 0x8, addend: 0x0, symName: __ZSt13__adjust_heapIN9__gnu_cxx17__normal_iteratorIP5QuerySt6vectorIS2_SaIS2_EEEElS2_NS0_5__ops15_Iter_comp_iterIZ9solveRectvEUlS2_S2_E_EEEvT_T0_SD_T1_T2_, symObjAddr: 0x2080, symBinAddr: 0x100005D0C, symSize: 0x1F8 }
  - { offsetInCU: 0x158AD, offset: 0x158AD, size: 0x8, addend: 0x0, symName: __ZSt14__relocate_a_1I5QueryS0_ENSt9enable_ifIXsrSt24__is_bitwise_relocatableIT_vE5valueEPS3_E4typeES5_S5_S5_RSaIT0_E, symObjAddr: 0x2000, symBinAddr: 0x100005C8C, symSize: 0x68 }
  - { offsetInCU: 0x158B5, offset: 0x158B5, size: 0x8, addend: 0x0, symName: __ZNSt12_Destroy_auxILb1EE9__destroyIP5QueryEEvT_S4_, symObjAddr: 0x2068, symBinAddr: 0x100005CF4, symSize: 0x18 }
  - { offsetInCU: 0x158FA, offset: 0x158FA, size: 0x8, addend: 0x0, symName: __ZSt12__niter_baseIP5QueryET_S2_, symObjAddr: 0x1FEC, symBinAddr: 0x100005C78, symSize: 0x14 }
  - { offsetInCU: 0x15902, offset: 0x15902, size: 0x8, addend: 0x0, symName: __ZSt14__relocate_a_1I5QueryS0_ENSt9enable_ifIXsrSt24__is_bitwise_relocatableIT_vE5valueEPS3_E4typeES5_S5_S5_RSaIT0_E, symObjAddr: 0x2000, symBinAddr: 0x100005C8C, symSize: 0x68 }
  - { offsetInCU: 0x1590B, offset: 0x1590B, size: 0x8, addend: 0x0, symName: __ZNSt15__new_allocatorI5QueryE8allocateEmPKv, symObjAddr: 0x1F70, symBinAddr: 0x100005BFC, symSize: 0x7C }
  - { offsetInCU: 0x15913, offset: 0x15913, size: 0x8, addend: 0x0, symName: __ZSt12__niter_baseIP5QueryET_S2_, symObjAddr: 0x1FEC, symBinAddr: 0x100005C78, symSize: 0x14 }
  - { offsetInCU: 0x15991, offset: 0x15991, size: 0x8, addend: 0x0, symName: __ZNKSt12_Vector_baseI5QuerySaIS0_EE19_M_get_Tp_allocatorEv, symObjAddr: 0x1F5C, symBinAddr: 0x100005BE8, symSize: 0x14 }
  - { offsetInCU: 0x15999, offset: 0x15999, size: 0x8, addend: 0x0, symName: __ZNSt15__new_allocatorI5QueryE8allocateEmPKv, symObjAddr: 0x1F70, symBinAddr: 0x100005BFC, symSize: 0x7C }
  - { offsetInCU: 0x159C0, offset: 0x159C0, size: 0x8, addend: 0x0, symName: __ZNSt6vectorI5QuerySaIS0_EE11_S_max_sizeERKS1_, symObjAddr: 0x1F08, symBinAddr: 0x100005B94, symSize: 0x54 }
  - { offsetInCU: 0x159C8, offset: 0x159C8, size: 0x8, addend: 0x0, symName: __ZNKSt12_Vector_baseI5QuerySaIS0_EE19_M_get_Tp_allocatorEv, symObjAddr: 0x1F5C, symBinAddr: 0x100005BE8, symSize: 0x14 }
  - { offsetInCU: 0x15A8C, offset: 0x15A8C, size: 0x8, addend: 0x0, symName: __ZN9__gnu_cxx5__ops14_Val_comp_iterIZ9solveRectvEUl5QueryS2_E_EclIS2_NS_17__normal_iteratorIPS2_St6vectorIS2_SaIS2_EEEEEEbRT_T0_, symObjAddr: 0x1E98, symBinAddr: 0x100005B24, symSize: 0x70 }
  - { offsetInCU: 0x15A94, offset: 0x15A94, size: 0x8, addend: 0x0, symName: __ZNSt6vectorI5QuerySaIS0_EE11_S_max_sizeERKS1_, symObjAddr: 0x1F08, symBinAddr: 0x100005B94, symSize: 0x54 }
  - { offsetInCU: 0x15B25, offset: 0x15B25, size: 0x8, addend: 0x0, symName: __ZN9__gnu_cxx5__ops14_Val_comp_iterIZ9solveRectvEUl5QueryS2_E_EC1EONS0_15_Iter_comp_iterIS3_EE, symObjAddr: 0x1E74, symBinAddr: 0x100005B00, symSize: 0x24 }
  - { offsetInCU: 0x15B2D, offset: 0x15B2D, size: 0x8, addend: 0x0, symName: __ZN9__gnu_cxx5__ops14_Val_comp_iterIZ9solveRectvEUl5QueryS2_E_EclIS2_NS_17__normal_iteratorIPS2_St6vectorIS2_SaIS2_EEEEEEbRT_T0_, symObjAddr: 0x1E98, symBinAddr: 0x100005B24, symSize: 0x70 }
  - { offsetInCU: 0x15BAD, offset: 0x15BAD, size: 0x8, addend: 0x0, symName: __ZSt4moveIRN9__gnu_cxx5__ops15_Iter_comp_iterIZ9solveRectvEUl5QueryS3_E_EEEONSt16remove_referenceIT_E4typeEOS8_, symObjAddr: 0x1E60, symBinAddr: 0x100005AEC, symSize: 0x14 }
  - { offsetInCU: 0x15BB5, offset: 0x15BB5, size: 0x8, addend: 0x0, symName: __ZN9__gnu_cxx5__ops14_Val_comp_iterIZ9solveRectvEUl5QueryS2_E_EC1EONS0_15_Iter_comp_iterIS3_EE, symObjAddr: 0x1E74, symBinAddr: 0x100005B00, symSize: 0x24 }
  - { offsetInCU: 0x15CBB, offset: 0x15CBB, size: 0x8, addend: 0x0, symName: __ZSt22__copy_move_backward_aILb1EN9__gnu_cxx17__normal_iteratorIP5QuerySt6vectorIS2_SaIS2_EEEES7_ET1_T0_S9_S8_, symObjAddr: 0x1E00, symBinAddr: 0x100005A8C, symSize: 0x60 }
  - { offsetInCU: 0x15CC3, offset: 0x15CC3, size: 0x8, addend: 0x0, symName: __ZSt4moveIRN9__gnu_cxx5__ops15_Iter_comp_iterIZ9solveRectvEUl5QueryS3_E_EEEONSt16remove_referenceIT_E4typeEOS8_, symObjAddr: 0x1E60, symBinAddr: 0x100005AEC, symSize: 0x14 }
  - { offsetInCU: 0x15CE7, offset: 0x15CE7, size: 0x8, addend: 0x0, symName: __ZSt12__miter_baseIN9__gnu_cxx17__normal_iteratorIP5QuerySt6vectorIS2_SaIS2_EEEEET_S8_, symObjAddr: 0x1DEC, symBinAddr: 0x100005A78, symSize: 0x14 }
  - { offsetInCU: 0x15CEF, offset: 0x15CEF, size: 0x8, addend: 0x0, symName: __ZSt22__copy_move_backward_aILb1EN9__gnu_cxx17__normal_iteratorIP5QuerySt6vectorIS2_SaIS2_EEEES7_ET1_T0_S9_S8_, symObjAddr: 0x1E00, symBinAddr: 0x100005A8C, symSize: 0x60 }
  - { offsetInCU: 0x15D67, offset: 0x15D67, size: 0x8, addend: 0x0, symName: __ZSt9iter_swapIN9__gnu_cxx17__normal_iteratorIP5QuerySt6vectorIS2_SaIS2_EEEES7_EvT_T0_, symObjAddr: 0x1DA8, symBinAddr: 0x100005A34, symSize: 0x44 }
  - { offsetInCU: 0x15D6F, offset: 0x15D6F, size: 0x8, addend: 0x0, symName: __ZSt12__miter_baseIN9__gnu_cxx17__normal_iteratorIP5QuerySt6vectorIS2_SaIS2_EEEEET_S8_, symObjAddr: 0x1DEC, symBinAddr: 0x100005A78, symSize: 0x14 }
  - { offsetInCU: 0x15CF0, offset: 0x15CF0, size: 0x8, addend: 0x0, symName: __ZN9__gnu_cxx17__normal_iteratorIP5QuerySt6vectorIS1_SaIS1_EEEmmEv, symObjAddr: 0x1D80, symBinAddr: 0x100005A0C, symSize: 0x28 }
  - { offsetInCU: 0x15CF8, offset: 0x15CF8, size: 0x8, addend: 0x0, symName: __ZSt9iter_swapIN9__gnu_cxx17__normal_iteratorIP5QuerySt6vectorIS2_SaIS2_EEEES7_EvT_T0_, symObjAddr: 0x1DA8, symBinAddr: 0x100005A34, symSize: 0x44 }
  - { offsetInCU: 0x15DAF, offset: 0x15DAF, size: 0x8, addend: 0x0, symName: __ZSt10__pop_heapIN9__gnu_cxx17__normal_iteratorIP5QuerySt6vectorIS2_SaIS2_EEEENS0_5__ops15_Iter_comp_iterIZ9solveRectvEUlS2_S2_E_EEEvT_SC_SC_RT0_, symObjAddr: 0x1CCC, symBinAddr: 0x100005958, symSize: 0xB4 }
  - { offsetInCU: 0x15DB7, offset: 0x15DB7, size: 0x8, addend: 0x0, symName: __ZN9__gnu_cxx17__normal_iteratorIP5QuerySt6vectorIS1_SaIS1_EEEmmEv, symObjAddr: 0x1D80, symBinAddr: 0x100005A0C, symSize: 0x28 }
  - { offsetInCU: 0x15E58, offset: 0x15E58, size: 0x8, addend: 0x0, symName: __ZN9__gnu_cxxltIP5QuerySt6vectorIS1_SaIS1_EEEEbRKNS_17__normal_iteratorIT_T0_EESB_, symObjAddr: 0x1C88, symBinAddr: 0x100005914, symSize: 0x44 }
  - { offsetInCU: 0x15E60, offset: 0x15E60, size: 0x8, addend: 0x0, symName: __ZSt10__pop_heapIN9__gnu_cxx17__normal_iteratorIP5QuerySt6vectorIS2_SaIS2_EEEENS0_5__ops15_Iter_comp_iterIZ9solveRectvEUlS2_S2_E_EEEvT_SC_SC_RT0_, symObjAddr: 0x1CCC, symBinAddr: 0x100005958, symSize: 0xB4 }
  - { offsetInCU: 0x15EE0, offset: 0x15EE0, size: 0x8, addend: 0x0, symName: __ZSt11__make_heapIN9__gnu_cxx17__normal_iteratorIP5QuerySt6vectorIS2_SaIS2_EEEENS0_5__ops15_Iter_comp_iterIZ9solveRectvEUlS2_S2_E_EEEvT_SC_RT0_, symObjAddr: 0x1B94, symBinAddr: 0x100005820, symSize: 0xF4 }
  - { offsetInCU: 0x15EE8, offset: 0x15EE8, size: 0x8, addend: 0x0, symName: __ZN9__gnu_cxxltIP5QuerySt6vectorIS1_SaIS1_EEEEbRKNS_17__normal_iteratorIT_T0_EESB_, symObjAddr: 0x1C88, symBinAddr: 0x100005914, symSize: 0x44 }
  - { offsetInCU: 0x15F6E, offset: 0x15F6E, size: 0x8, addend: 0x0, symName: __ZSt8_DestroyIP5QueryEvT_S2_, symObjAddr: 0x1B6C, symBinAddr: 0x1000057F8, symSize: 0x28 }
  - { offsetInCU: 0x15F76, offset: 0x15F76, size: 0x8, addend: 0x0, symName: __ZSt11__make_heapIN9__gnu_cxx17__normal_iteratorIP5QuerySt6vectorIS2_SaIS2_EEEENS0_5__ops15_Iter_comp_iterIZ9solveRectvEUlS2_S2_E_EEEvT_SC_RT0_, symObjAddr: 0x1B94, symBinAddr: 0x100005820, symSize: 0xF4 }
  - { offsetInCU: 0x16003, offset: 0x16003, size: 0x8, addend: 0x0, symName: __ZSt12__relocate_aIP5QueryS1_SaIS0_EET0_T_S4_S3_RT1_, symObjAddr: 0x1B10, symBinAddr: 0x10000579C, symSize: 0x5C }
  - { offsetInCU: 0x1600B, offset: 0x1600B, size: 0x8, addend: 0x0, symName: __ZSt8_DestroyIP5QueryEvT_S2_, symObjAddr: 0x1B6C, symBinAddr: 0x1000057F8, symSize: 0x28 }
  - { offsetInCU: 0x16063, offset: 0x16063, size: 0x8, addend: 0x0, symName: __ZNKSt6vectorI5QuerySaIS0_EE8max_sizeEv, symObjAddr: 0x1AF0, symBinAddr: 0x10000577C, symSize: 0x20 }
  - { offsetInCU: 0x1606B, offset: 0x1606B, size: 0x8, addend: 0x0, symName: __ZSt12__relocate_aIP5QueryS1_SaIS0_EET0_T_S4_S3_RT1_, symObjAddr: 0x1B10, symBinAddr: 0x10000579C, symSize: 0x5C }
  - { offsetInCU: 0x16130, offset: 0x16130, size: 0x8, addend: 0x0, symName: __ZSt25__unguarded_linear_insertIN9__gnu_cxx17__normal_iteratorIP5QuerySt6vectorIS2_SaIS2_EEEENS0_5__ops14_Val_comp_iterIZ9solveRectvEUlS2_S2_E_EEEvT_T0_, symObjAddr: 0x1A28, symBinAddr: 0x1000056B4, symSize: 0xC8 }
  - { offsetInCU: 0x16138, offset: 0x16138, size: 0x8, addend: 0x0, symName: __ZNKSt6vectorI5QuerySaIS0_EE8max_sizeEv, symObjAddr: 0x1AF0, symBinAddr: 0x10000577C, symSize: 0x20 }
  - { offsetInCU: 0x16154, offset: 0x16154, size: 0x8, addend: 0x0, symName: __ZN9__gnu_cxx5__ops15__val_comp_iterIZ9solveRectvEUl5QueryS2_E_EENS0_14_Val_comp_iterIT_EENS0_15_Iter_comp_iterIS5_EE, symObjAddr: 0x19F0, symBinAddr: 0x10000567C, symSize: 0x38 }
  - { offsetInCU: 0x1615C, offset: 0x1615C, size: 0x8, addend: 0x0, symName: __ZSt25__unguarded_linear_insertIN9__gnu_cxx17__normal_iteratorIP5QuerySt6vectorIS2_SaIS2_EEEENS0_5__ops14_Val_comp_iterIZ9solveRectvEUlS2_S2_E_EEEvT_T0_, symObjAddr: 0x1A28, symBinAddr: 0x1000056B4, symSize: 0xC8 }
  - { offsetInCU: 0x1624A, offset: 0x1624A, size: 0x8, addend: 0x0, symName: __ZSt13move_backwardIN9__gnu_cxx17__normal_iteratorIP5QuerySt6vectorIS2_SaIS2_EEEES7_ET0_T_S9_S8_, symObjAddr: 0x19A8, symBinAddr: 0x100005634, symSize: 0x48 }
  - { offsetInCU: 0x16252, offset: 0x16252, size: 0x8, addend: 0x0, symName: __ZN9__gnu_cxx5__ops15__val_comp_iterIZ9solveRectvEUl5QueryS2_E_EENS0_14_Val_comp_iterIT_EENS0_15_Iter_comp_iterIS5_EE, symObjAddr: 0x19F0, symBinAddr: 0x10000567C, symSize: 0x38 }
  - { offsetInCU: 0x161E0, offset: 0x161E0, size: 0x8, addend: 0x0, symName: __ZN9__gnu_cxx5__ops15_Iter_comp_iterIZ9solveRectvEUl5QueryS2_E_EclINS_17__normal_iteratorIPS2_St6vectorIS2_SaIS2_EEEESB_EEbT_T0_, symObjAddr: 0x192C, symBinAddr: 0x1000055B8, symSize: 0x7C }
  - { offsetInCU: 0x161E8, offset: 0x161E8, size: 0x8, addend: 0x0, symName: __ZSt13move_backwardIN9__gnu_cxx17__normal_iteratorIP5QuerySt6vectorIS2_SaIS2_EEEES7_ET0_T_S9_S8_, symObjAddr: 0x19A8, symBinAddr: 0x100005634, symSize: 0x48 }
  - { offsetInCU: 0x1624F, offset: 0x1624F, size: 0x8, addend: 0x0, symName: __ZN9__gnu_cxx17__normal_iteratorIP5QuerySt6vectorIS1_SaIS1_EEEppEv, symObjAddr: 0x1904, symBinAddr: 0x100005590, symSize: 0x28 }
  - { offsetInCU: 0x16257, offset: 0x16257, size: 0x8, addend: 0x0, symName: __ZN9__gnu_cxx5__ops15_Iter_comp_iterIZ9solveRectvEUl5QueryS2_E_EclINS_17__normal_iteratorIPS2_St6vectorIS2_SaIS2_EEEESB_EEbT_T0_, symObjAddr: 0x192C, symBinAddr: 0x1000055B8, symSize: 0x7C }
  - { offsetInCU: 0x162FE, offset: 0x162FE, size: 0x8, addend: 0x0, symName: __ZN9__gnu_cxxeqIP5QuerySt6vectorIS1_SaIS1_EEEEbRKNS_17__normal_iteratorIT_T0_EESB_, symObjAddr: 0x18C0, symBinAddr: 0x10000554C, symSize: 0x44 }
  - { offsetInCU: 0x16306, offset: 0x16306, size: 0x8, addend: 0x0, symName: __ZN9__gnu_cxx17__normal_iteratorIP5QuerySt6vectorIS1_SaIS1_EEEppEv, symObjAddr: 0x1904, symBinAddr: 0x100005590, symSize: 0x28 }
  - { offsetInCU: 0x1638B, offset: 0x1638B, size: 0x8, addend: 0x0, symName: __ZSt21__unguarded_partitionIN9__gnu_cxx17__normal_iteratorIP5QuerySt6vectorIS2_SaIS2_EEEENS0_5__ops15_Iter_comp_iterIZ9solveRectvEUlS2_S2_E_EEET_SC_SC_SC_T0_, symObjAddr: 0x17FC, symBinAddr: 0x100005488, symSize: 0xC4 }
  - { offsetInCU: 0x16393, offset: 0x16393, size: 0x8, addend: 0x0, symName: __ZN9__gnu_cxxeqIP5QuerySt6vectorIS1_SaIS1_EEEEbRKNS_17__normal_iteratorIT_T0_EESB_, symObjAddr: 0x18C0, symBinAddr: 0x10000554C, symSize: 0x44 }
  - { offsetInCU: 0x16417, offset: 0x16417, size: 0x8, addend: 0x0, symName: __ZSt22__move_median_to_firstIN9__gnu_cxx17__normal_iteratorIP5QuerySt6vectorIS2_SaIS2_EEEENS0_5__ops15_Iter_comp_iterIZ9solveRectvEUlS2_S2_E_EEEvT_SC_SC_SC_T0_, symObjAddr: 0x16D8, symBinAddr: 0x100005364, symSize: 0x124 }
  - { offsetInCU: 0x1641F, offset: 0x1641F, size: 0x8, addend: 0x0, symName: __ZSt21__unguarded_partitionIN9__gnu_cxx17__normal_iteratorIP5QuerySt6vectorIS2_SaIS2_EEEENS0_5__ops15_Iter_comp_iterIZ9solveRectvEUlS2_S2_E_EEET_SC_SC_SC_T0_, symObjAddr: 0x17FC, symBinAddr: 0x100005488, symSize: 0xC4 }
  - { offsetInCU: 0x164A2, offset: 0x164A2, size: 0x8, addend: 0x0, symName: __ZSt11__sort_heapIN9__gnu_cxx17__normal_iteratorIP5QuerySt6vectorIS2_SaIS2_EEEENS0_5__ops15_Iter_comp_iterIZ9solveRectvEUlS2_S2_E_EEEvT_SC_RT0_, symObjAddr: 0x1670, symBinAddr: 0x1000052FC, symSize: 0x68 }
  - { offsetInCU: 0x164AA, offset: 0x164AA, size: 0x8, addend: 0x0, symName: __ZSt22__move_median_to_firstIN9__gnu_cxx17__normal_iteratorIP5QuerySt6vectorIS2_SaIS2_EEEENS0_5__ops15_Iter_comp_iterIZ9solveRectvEUlS2_S2_E_EEEvT_SC_SC_SC_T0_, symObjAddr: 0x16D8, symBinAddr: 0x100005364, symSize: 0x124 }
  - { offsetInCU: 0x16518, offset: 0x16518, size: 0x8, addend: 0x0, symName: __ZSt13__heap_selectIN9__gnu_cxx17__normal_iteratorIP5QuerySt6vectorIS2_SaIS2_EEEENS0_5__ops15_Iter_comp_iterIZ9solveRectvEUlS2_S2_E_EEEvT_SC_SC_T0_, symObjAddr: 0x15CC, symBinAddr: 0x100005258, symSize: 0xA4 }
  - { offsetInCU: 0x16520, offset: 0x16520, size: 0x8, addend: 0x0, symName: __ZSt11__sort_heapIN9__gnu_cxx17__normal_iteratorIP5QuerySt6vectorIS2_SaIS2_EEEENS0_5__ops15_Iter_comp_iterIZ9solveRectvEUlS2_S2_E_EEEvT_SC_RT0_, symObjAddr: 0x1670, symBinAddr: 0x1000052FC, symSize: 0x68 }
  - { offsetInCU: 0x16533, offset: 0x16533, size: 0x8, addend: 0x0, symName: __ZNK9__gnu_cxx17__normal_iteratorIP5QuerySt6vectorIS1_SaIS1_EEEdeEv, symObjAddr: 0x15B4, symBinAddr: 0x100005240, symSize: 0x18 }
  - { offsetInCU: 0x1653B, offset: 0x1653B, size: 0x8, addend: 0x0, symName: __ZSt13__heap_selectIN9__gnu_cxx17__normal_iteratorIP5QuerySt6vectorIS2_SaIS2_EEEENS0_5__ops15_Iter_comp_iterIZ9solveRectvEUlS2_S2_E_EEEvT_SC_SC_T0_, symObjAddr: 0x15CC, symBinAddr: 0x100005258, symSize: 0xA4 }
  - { offsetInCU: 0x16562, offset: 0x16562, size: 0x8, addend: 0x0, symName: __ZNK9__gnu_cxx17__normal_iteratorIP5QuerySt6vectorIS1_SaIS1_EEEmiEl, symObjAddr: 0x1570, symBinAddr: 0x1000051FC, symSize: 0x44 }
  - { offsetInCU: 0x1656A, offset: 0x1656A, size: 0x8, addend: 0x0, symName: __ZNK9__gnu_cxx17__normal_iteratorIP5QuerySt6vectorIS1_SaIS1_EEEdeEv, symObjAddr: 0x15B4, symBinAddr: 0x100005240, symSize: 0x18 }
  - { offsetInCU: 0x165FA, offset: 0x165FA, size: 0x8, addend: 0x0, symName: __ZNSt12_Vector_baseI5QuerySaIS0_EE19_M_get_Tp_allocatorEv, symObjAddr: 0x155C, symBinAddr: 0x1000051E8, symSize: 0x14 }
  - { offsetInCU: 0x16602, offset: 0x16602, size: 0x8, addend: 0x0, symName: __ZNK9__gnu_cxx17__normal_iteratorIP5QuerySt6vectorIS1_SaIS1_EEEmiEl, symObjAddr: 0x1570, symBinAddr: 0x1000051FC, symSize: 0x44 }
  - { offsetInCU: 0x16629, offset: 0x16629, size: 0x8, addend: 0x0, symName: __ZNSt6vectorI5QuerySaIS0_EE11_S_relocateEPS0_S3_S3_RS1_, symObjAddr: 0x1528, symBinAddr: 0x1000051B4, symSize: 0x34 }
  - { offsetInCU: 0x16631, offset: 0x16631, size: 0x8, addend: 0x0, symName: __ZNSt12_Vector_baseI5QuerySaIS0_EE19_M_get_Tp_allocatorEv, symObjAddr: 0x155C, symBinAddr: 0x1000051E8, symSize: 0x14 }
  - { offsetInCU: 0x16697, offset: 0x16697, size: 0x8, addend: 0x0, symName: __ZNSt12_Vector_baseI5QuerySaIS0_EE11_M_allocateEm, symObjAddr: 0x14D8, symBinAddr: 0x100005164, symSize: 0x50 }
  - { offsetInCU: 0x1669F, offset: 0x1669F, size: 0x8, addend: 0x0, symName: __ZNSt6vectorI5QuerySaIS0_EE11_S_relocateEPS0_S3_S3_RS1_, symObjAddr: 0x1528, symBinAddr: 0x1000051B4, symSize: 0x34 }
  - { offsetInCU: 0x1670C, offset: 0x1670C, size: 0x8, addend: 0x0, symName: __ZNKSt6vectorI5QuerySaIS0_EE12_M_check_lenEmPKc, symObjAddr: 0x1408, symBinAddr: 0x100005094, symSize: 0xD0 }
  - { offsetInCU: 0x16714, offset: 0x16714, size: 0x8, addend: 0x0, symName: __ZNSt12_Vector_baseI5QuerySaIS0_EE11_M_allocateEm, symObjAddr: 0x14D8, symBinAddr: 0x100005164, symSize: 0x50 }
  - { offsetInCU: 0x1686B, offset: 0x1686B, size: 0x8, addend: 0x0, symName: __ZSt26__unguarded_insertion_sortIN9__gnu_cxx17__normal_iteratorIP5QuerySt6vectorIS2_SaIS2_EEEENS0_5__ops15_Iter_comp_iterIZ9solveRectvEUlS2_S2_E_EEEvT_SC_T0_, symObjAddr: 0x1398, symBinAddr: 0x100005024, symSize: 0x70 }
  - { offsetInCU: 0x16873, offset: 0x16873, size: 0x8, addend: 0x0, symName: __ZNKSt6vectorI5QuerySaIS0_EE12_M_check_lenEmPKc, symObjAddr: 0x1408, symBinAddr: 0x100005094, symSize: 0xD0 }
  - { offsetInCU: 0x168FB, offset: 0x168FB, size: 0x8, addend: 0x0, symName: __ZSt16__insertion_sortIN9__gnu_cxx17__normal_iteratorIP5QuerySt6vectorIS2_SaIS2_EEEENS0_5__ops15_Iter_comp_iterIZ9solveRectvEUlS2_S2_E_EEEvT_SC_T0_, symObjAddr: 0x1288, symBinAddr: 0x100004F14, symSize: 0x110 }
  - { offsetInCU: 0x16903, offset: 0x16903, size: 0x8, addend: 0x0, symName: __ZSt26__unguarded_insertion_sortIN9__gnu_cxx17__normal_iteratorIP5QuerySt6vectorIS2_SaIS2_EEEENS0_5__ops15_Iter_comp_iterIZ9solveRectvEUlS2_S2_E_EEEvT_SC_T0_, symObjAddr: 0x1398, symBinAddr: 0x100005024, symSize: 0x70 }
  - { offsetInCU: 0x16926, offset: 0x16926, size: 0x8, addend: 0x0, symName: __ZNK9__gnu_cxx17__normal_iteratorIP5QuerySt6vectorIS1_SaIS1_EEEplEl, symObjAddr: 0x1248, symBinAddr: 0x100004ED4, symSize: 0x40 }
  - { offsetInCU: 0x1692E, offset: 0x1692E, size: 0x8, addend: 0x0, symName: __ZSt16__insertion_sortIN9__gnu_cxx17__normal_iteratorIP5QuerySt6vectorIS2_SaIS2_EEEENS0_5__ops15_Iter_comp_iterIZ9solveRectvEUlS2_S2_E_EEEvT_SC_T0_, symObjAddr: 0x1288, symBinAddr: 0x100004F14, symSize: 0x110 }
  - { offsetInCU: 0x16A0F, offset: 0x16A0F, size: 0x8, addend: 0x0, symName: __ZSt27__unguarded_partition_pivotIN9__gnu_cxx17__normal_iteratorIP5QuerySt6vectorIS2_SaIS2_EEEENS0_5__ops15_Iter_comp_iterIZ9solveRectvEUlS2_S2_E_EEET_SC_SC_T0_, symObjAddr: 0x11AC, symBinAddr: 0x100004E38, symSize: 0x9C }
  - { offsetInCU: 0x16A17, offset: 0x16A17, size: 0x8, addend: 0x0, symName: __ZNK9__gnu_cxx17__normal_iteratorIP5QuerySt6vectorIS1_SaIS1_EEEplEl, symObjAddr: 0x1248, symBinAddr: 0x100004ED4, symSize: 0x40 }
  - { offsetInCU: 0x16A8D, offset: 0x16A8D, size: 0x8, addend: 0x0, symName: __ZSt14__partial_sortIN9__gnu_cxx17__normal_iteratorIP5QuerySt6vectorIS2_SaIS2_EEEENS0_5__ops15_Iter_comp_iterIZ9solveRectvEUlS2_S2_E_EEEvT_SC_SC_T0_, symObjAddr: 0x1160, symBinAddr: 0x100004DEC, symSize: 0x4C }
  - { offsetInCU: 0x16A95, offset: 0x16A95, size: 0x8, addend: 0x0, symName: __ZSt27__unguarded_partition_pivotIN9__gnu_cxx17__normal_iteratorIP5QuerySt6vectorIS2_SaIS2_EEEENS0_5__ops15_Iter_comp_iterIZ9solveRectvEUlS2_S2_E_EEET_SC_SC_T0_, symObjAddr: 0x11AC, symBinAddr: 0x100004E38, symSize: 0x9C }
  - { offsetInCU: 0x16A81, offset: 0x16A81, size: 0x8, addend: 0x0, symName: __ZNK9__gnu_cxx17__normal_iteratorIP5QuerySt6vectorIS1_SaIS1_EEE4baseEv, symObjAddr: 0x114C, symBinAddr: 0x100004DD8, symSize: 0x14 }
  - { offsetInCU: 0x16A89, offset: 0x16A89, size: 0x8, addend: 0x0, symName: __ZSt14__partial_sortIN9__gnu_cxx17__normal_iteratorIP5QuerySt6vectorIS2_SaIS2_EEEENS0_5__ops15_Iter_comp_iterIZ9solveRectvEUlS2_S2_E_EEEvT_SC_SC_T0_, symObjAddr: 0x1160, symBinAddr: 0x100004DEC, symSize: 0x4C }
  - { offsetInCU: 0x16AB0, offset: 0x16AB0, size: 0x8, addend: 0x0, symName: __ZNSt15__new_allocatorI5QueryE10deallocateEPS0_m, symObjAddr: 0x111C, symBinAddr: 0x100004DA8, symSize: 0x30 }
  - { offsetInCU: 0x16AB8, offset: 0x16AB8, size: 0x8, addend: 0x0, symName: __ZNK9__gnu_cxx17__normal_iteratorIP5QuerySt6vectorIS1_SaIS1_EEE4baseEv, symObjAddr: 0x114C, symBinAddr: 0x100004DD8, symSize: 0x14 }
  - { offsetInCU: 0x16B44, offset: 0x16B44, size: 0x8, addend: 0x0, symName: __ZSt13__countl_zeroImEiT_, symObjAddr: 0x10C8, symBinAddr: 0x100004D54, symSize: 0x54 }
  - { offsetInCU: 0x16B4C, offset: 0x16B4C, size: 0x8, addend: 0x0, symName: __ZNSt15__new_allocatorI5QueryE10deallocateEPS0_m, symObjAddr: 0x111C, symBinAddr: 0x100004DA8, symSize: 0x30 }
  - { offsetInCU: 0x16BC1, offset: 0x16BC1, size: 0x8, addend: 0x0, symName: __ZNSt6vectorI5QuerySaIS0_EE4backEv, symObjAddr: 0x1090, symBinAddr: 0x100004D1C, symSize: 0x38 }
  - { offsetInCU: 0x16BC9, offset: 0x16BC9, size: 0x8, addend: 0x0, symName: __ZSt13__countl_zeroImEiT_, symObjAddr: 0x10C8, symBinAddr: 0x100004D54, symSize: 0x54 }
  - { offsetInCU: 0x16BF0, offset: 0x16BF0, size: 0x8, addend: 0x0, symName: __ZNSt6vectorI5QuerySaIS0_EE17_M_realloc_insertIJS0_EEEvN9__gnu_cxx17__normal_iteratorIPS0_S2_EEDpOT_, symObjAddr: 0xEC8, symBinAddr: 0x100004B54, symSize: 0x1C8 }
  - { offsetInCU: 0x16BF8, offset: 0x16BF8, size: 0x8, addend: 0x0, symName: __ZNSt6vectorI5QuerySaIS0_EE4backEv, symObjAddr: 0x1090, symBinAddr: 0x100004D1C, symSize: 0x38 }
  - { offsetInCU: 0x16DF5, offset: 0x16DF5, size: 0x8, addend: 0x0, symName: __ZSt7forwardI5QueryEOT_RNSt16remove_referenceIS1_E4typeE, symObjAddr: 0xEB4, symBinAddr: 0x100004B40, symSize: 0x14 }
  - { offsetInCU: 0x16DFD, offset: 0x16DFD, size: 0x8, addend: 0x0, symName: __ZNSt6vectorI5QuerySaIS0_EE17_M_realloc_insertIJS0_EEEvN9__gnu_cxx17__normal_iteratorIPS0_S2_EEDpOT_, symObjAddr: 0xEC8, symBinAddr: 0x100004B54, symSize: 0x1C8 }
  - { offsetInCU: 0x16E9A, offset: 0x16E9A, size: 0x8, addend: 0x0, symName: __ZSt22__final_insertion_sortIN9__gnu_cxx17__normal_iteratorIP5QuerySt6vectorIS2_SaIS2_EEEENS0_5__ops15_Iter_comp_iterIZ9solveRectvEUlS2_S2_E_EEEvT_SC_T0_, symObjAddr: 0xE28, symBinAddr: 0x100004AB4, symSize: 0x8C }
  - { offsetInCU: 0x16EA2, offset: 0x16EA2, size: 0x8, addend: 0x0, symName: __ZSt7forwardI5QueryEOT_RNSt16remove_referenceIS1_E4typeE, symObjAddr: 0xEB4, symBinAddr: 0x100004B40, symSize: 0x14 }
  - { offsetInCU: 0x16F12, offset: 0x16F12, size: 0x8, addend: 0x0, symName: __ZSt16__introsort_loopIN9__gnu_cxx17__normal_iteratorIP5QuerySt6vectorIS2_SaIS2_EEEElNS0_5__ops15_Iter_comp_iterIZ9solveRectvEUlS2_S2_E_EEEvT_SC_T0_T1_, symObjAddr: 0xD80, symBinAddr: 0x100004A0C, symSize: 0xA8 }
  - { offsetInCU: 0x16F1A, offset: 0x16F1A, size: 0x8, addend: 0x0, symName: __ZSt22__final_insertion_sortIN9__gnu_cxx17__normal_iteratorIP5QuerySt6vectorIS2_SaIS2_EEEENS0_5__ops15_Iter_comp_iterIZ9solveRectvEUlS2_S2_E_EEEvT_SC_T0_, symObjAddr: 0xE28, symBinAddr: 0x100004AB4, symSize: 0x8C }
  - { offsetInCU: 0x16F53, offset: 0x16F53, size: 0x8, addend: 0x0, symName: __ZSt4__lgIlET_S0_, symObjAddr: 0xD5C, symBinAddr: 0x1000049E8, symSize: 0x24 }
  - { offsetInCU: 0x16F5B, offset: 0x16F5B, size: 0x8, addend: 0x0, symName: __ZSt16__introsort_loopIN9__gnu_cxx17__normal_iteratorIP5QuerySt6vectorIS2_SaIS2_EEEElNS0_5__ops15_Iter_comp_iterIZ9solveRectvEUlS2_S2_E_EEEvT_SC_T0_T1_, symObjAddr: 0xD80, symBinAddr: 0x100004A0C, symSize: 0xA8 }
  - { offsetInCU: 0x1700B, offset: 0x1700B, size: 0x8, addend: 0x0, symName: __ZN9__gnu_cxxmiIP5QuerySt6vectorIS1_SaIS1_EEEENS_17__normal_iteratorIT_T0_E15difference_typeERKS9_SC_, symObjAddr: 0xD1C, symBinAddr: 0x1000049A8, symSize: 0x40 }
  - { offsetInCU: 0x17013, offset: 0x17013, size: 0x8, addend: 0x0, symName: __ZSt4__lgIlET_S0_, symObjAddr: 0xD5C, symBinAddr: 0x1000049E8, symSize: 0x24 }
  - { offsetInCU: 0x17066, offset: 0x17066, size: 0x8, addend: 0x0, symName: __ZN9__gnu_cxxneIP5QuerySt6vectorIS1_SaIS1_EEEEbRKNS_17__normal_iteratorIT_T0_EESB_, symObjAddr: 0xCD8, symBinAddr: 0x100004964, symSize: 0x44 }
  - { offsetInCU: 0x1706E, offset: 0x1706E, size: 0x8, addend: 0x0, symName: __ZN9__gnu_cxxmiIP5QuerySt6vectorIS1_SaIS1_EEEENS_17__normal_iteratorIT_T0_E15difference_typeERKS9_SC_, symObjAddr: 0xD1C, symBinAddr: 0x1000049A8, symSize: 0x40 }
  - { offsetInCU: 0x1707D, offset: 0x1707D, size: 0x8, addend: 0x0, symName: __ZN9__gnu_cxx5__ops15_Iter_comp_iterIZ9solveRectvEUl5QueryS2_E_EC1ES3_, symObjAddr: 0xCB4, symBinAddr: 0x100004940, symSize: 0x24 }
  - { offsetInCU: 0x17085, offset: 0x17085, size: 0x8, addend: 0x0, symName: __ZN9__gnu_cxxneIP5QuerySt6vectorIS1_SaIS1_EEEEbRKNS_17__normal_iteratorIT_T0_EESB_, symObjAddr: 0xCD8, symBinAddr: 0x100004964, symSize: 0x44 }
  - { offsetInCU: 0x170E1, offset: 0x170E1, size: 0x8, addend: 0x0, symName: __ZSt4moveIRZ9solveRectvEUl5QueryS0_E_EONSt16remove_referenceIT_E4typeEOS4_, symObjAddr: 0xCA0, symBinAddr: 0x10000492C, symSize: 0x14 }
  - { offsetInCU: 0x170E9, offset: 0x170E9, size: 0x8, addend: 0x0, symName: __ZN9__gnu_cxx5__ops15_Iter_comp_iterIZ9solveRectvEUl5QueryS2_E_EC1ES3_, symObjAddr: 0xCB4, symBinAddr: 0x100004940, symSize: 0x24 }
  - { offsetInCU: 0x1719E, offset: 0x1719E, size: 0x8, addend: 0x0, symName: __ZSt11__bit_widthImEiT_, symObjAddr: 0xC70, symBinAddr: 0x1000048FC, symSize: 0x30 }
  - { offsetInCU: 0x171A6, offset: 0x171A6, size: 0x8, addend: 0x0, symName: __ZSt4moveIRZ9solveRectvEUl5QueryS0_E_EONSt16remove_referenceIT_E4typeEOS4_, symObjAddr: 0xCA0, symBinAddr: 0x10000492C, symSize: 0x14 }
  - { offsetInCU: 0x171C2, offset: 0x171C2, size: 0x8, addend: 0x0, symName: __ZNSt6vectorI5QuerySaIS0_EE12emplace_backIJS0_EEERS0_DpOT_, symObjAddr: 0xB80, symBinAddr: 0x10000480C, symSize: 0xF0 }
  - { offsetInCU: 0x171CA, offset: 0x171CA, size: 0x8, addend: 0x0, symName: __ZSt11__bit_widthImEiT_, symObjAddr: 0xC70, symBinAddr: 0x1000048FC, symSize: 0x30 }
  - { offsetInCU: 0x172D6, offset: 0x172D6, size: 0x8, addend: 0x0, symName: __ZSt4moveIR5QueryEONSt16remove_referenceIT_E4typeEOS3_, symObjAddr: 0xB6C, symBinAddr: 0x1000047F8, symSize: 0x14 }
  - { offsetInCU: 0x172DE, offset: 0x172DE, size: 0x8, addend: 0x0, symName: __ZNSt6vectorI5QuerySaIS0_EE12emplace_backIJS0_EEERS0_DpOT_, symObjAddr: 0xB80, symBinAddr: 0x10000480C, symSize: 0xF0 }
  - { offsetInCU: 0x1736F, offset: 0x1736F, size: 0x8, addend: 0x0, symName: __ZSt6__sortIN9__gnu_cxx17__normal_iteratorIP5QuerySt6vectorIS2_SaIS2_EEEENS0_5__ops15_Iter_comp_iterIZ9solveRectvEUlS2_S2_E_EEEvT_SC_T0_, symObjAddr: 0xAF8, symBinAddr: 0x100004784, symSize: 0x74 }
  - { offsetInCU: 0x17377, offset: 0x17377, size: 0x8, addend: 0x0, symName: __ZSt4moveIR5QueryEONSt16remove_referenceIT_E4typeEOS3_, symObjAddr: 0xB6C, symBinAddr: 0x1000047F8, symSize: 0x14 }
  - { offsetInCU: 0x17392, offset: 0x17392, size: 0x8, addend: 0x0, symName: __ZN9__gnu_cxx5__ops16__iter_comp_iterIZ9solveRectvEUl5QueryS2_E_EENS0_15_Iter_comp_iterIT_EES5_, symObjAddr: 0xAC0, symBinAddr: 0x10000474C, symSize: 0x38 }
  - { offsetInCU: 0x1739A, offset: 0x1739A, size: 0x8, addend: 0x0, symName: __ZSt6__sortIN9__gnu_cxx17__normal_iteratorIP5QuerySt6vectorIS2_SaIS2_EEEENS0_5__ops15_Iter_comp_iterIZ9solveRectvEUlS2_S2_E_EEEvT_SC_T0_, symObjAddr: 0xAF8, symBinAddr: 0x100004784, symSize: 0x74 }
  - { offsetInCU: 0x1740D, offset: 0x1740D, size: 0x8, addend: 0x0, symName: __ZN9__gnu_cxx17__normal_iteratorIP5QuerySt6vectorIS1_SaIS1_EEEC1ERKS2_, symObjAddr: 0xA98, symBinAddr: 0x100004724, symSize: 0x28 }
  - { offsetInCU: 0x17415, offset: 0x17415, size: 0x8, addend: 0x0, symName: __ZN9__gnu_cxx5__ops16__iter_comp_iterIZ9solveRectvEUl5QueryS2_E_EENS0_15_Iter_comp_iterIT_EES5_, symObjAddr: 0xAC0, symBinAddr: 0x10000474C, symSize: 0x38 }
  - { offsetInCU: 0x17400, offset: 0x17400, size: 0x8, addend: 0x0, symName: __ZNSt12_Vector_baseI5QuerySaIS0_EE13_M_deallocateEPS0_m, symObjAddr: 0xA40, symBinAddr: 0x1000046CC, symSize: 0x58 }
  - { offsetInCU: 0x17408, offset: 0x17408, size: 0x8, addend: 0x0, symName: __ZN9__gnu_cxx17__normal_iteratorIP5QuerySt6vectorIS1_SaIS1_EEEC1ERKS2_, symObjAddr: 0xA98, symBinAddr: 0x100004724, symSize: 0x28 }
  - { offsetInCU: 0x174DF, offset: 0x174DF, size: 0x8, addend: 0x0, symName: __ZNSt15__new_allocatorI5QueryED2Ev, symObjAddr: 0xA2C, symBinAddr: 0x1000046B8, symSize: 0x14 }
  - { offsetInCU: 0x174E7, offset: 0x174E7, size: 0x8, addend: 0x0, symName: __ZNSt12_Vector_baseI5QuerySaIS0_EE13_M_deallocateEPS0_m, symObjAddr: 0xA40, symBinAddr: 0x1000046CC, symSize: 0x58 }
  - { offsetInCU: 0x1753D, offset: 0x1753D, size: 0x8, addend: 0x0, symName: __ZNSt12_Vector_baseI5QuerySaIS0_EE17_Vector_impl_dataC2Ev, symObjAddr: 0xA00, symBinAddr: 0x10000468C, symSize: 0x2C }
  - { offsetInCU: 0x17545, offset: 0x17545, size: 0x8, addend: 0x0, symName: __ZNSt15__new_allocatorI5QueryED2Ev, symObjAddr: 0xA2C, symBinAddr: 0x1000046B8, symSize: 0x14 }
  - { offsetInCU: 0x17578, offset: 0x17578, size: 0x8, addend: 0x0, symName: __ZSt3maxIxERKT_S2_S2_, symObjAddr: 0x9C8, symBinAddr: 0x100004654, symSize: 0x38 }
  - { offsetInCU: 0x17580, offset: 0x17580, size: 0x8, addend: 0x0, symName: __ZNSt12_Vector_baseI5QuerySaIS0_EE17_Vector_impl_dataC2Ev, symObjAddr: 0xA00, symBinAddr: 0x10000468C, symSize: 0x2C }
  - { offsetInCU: 0x175B4, offset: 0x175B4, size: 0x8, addend: 0x0, symName: __ZNSt6vectorI5QuerySaIS0_EE9push_backEOS0_, symObjAddr: 0x998, symBinAddr: 0x100004624, symSize: 0x30 }
  - { offsetInCU: 0x175BC, offset: 0x175BC, size: 0x8, addend: 0x0, symName: __ZSt3maxIxERKT_S2_S2_, symObjAddr: 0x9C8, symBinAddr: 0x100004654, symSize: 0x38 }
  - { offsetInCU: 0x175F7, offset: 0x175F7, size: 0x8, addend: 0x0, symName: __ZNSt6vectorI5QuerySaIS0_EEixEm, symObjAddr: 0x970, symBinAddr: 0x1000045FC, symSize: 0x28 }
  - { offsetInCU: 0x175FF, offset: 0x175FF, size: 0x8, addend: 0x0, symName: __ZNSt6vectorI5QuerySaIS0_EE9push_backEOS0_, symObjAddr: 0x998, symBinAddr: 0x100004624, symSize: 0x30 }
  - { offsetInCU: 0x1763A, offset: 0x1763A, size: 0x8, addend: 0x0, symName: __ZNKSt6vectorI5QuerySaIS0_EE4sizeEv, symObjAddr: 0x948, symBinAddr: 0x1000045D4, symSize: 0x28 }
  - { offsetInCU: 0x17642, offset: 0x17642, size: 0x8, addend: 0x0, symName: __ZNSt6vectorI5QuerySaIS0_EEixEm, symObjAddr: 0x970, symBinAddr: 0x1000045FC, symSize: 0x28 }
  - { offsetInCU: 0x176CF, offset: 0x176CF, size: 0x8, addend: 0x0, symName: __ZSt4sortIN9__gnu_cxx17__normal_iteratorIP5QuerySt6vectorIS2_SaIS2_EEEEZ9solveRectvEUlS2_S2_E_EvT_S9_T0_, symObjAddr: 0x908, symBinAddr: 0x100004594, symSize: 0x40 }
  - { offsetInCU: 0x176D7, offset: 0x176D7, size: 0x8, addend: 0x0, symName: __ZNKSt6vectorI5QuerySaIS0_EE4sizeEv, symObjAddr: 0x948, symBinAddr: 0x1000045D4, symSize: 0x28 }
  - { offsetInCU: 0x176DD, offset: 0x176DD, size: 0x8, addend: 0x0, symName: __ZNSt6vectorI5QuerySaIS0_EE3endEv, symObjAddr: 0x8E0, symBinAddr: 0x10000456C, symSize: 0x28 }
  - { offsetInCU: 0x176E5, offset: 0x176E5, size: 0x8, addend: 0x0, symName: __ZSt4sortIN9__gnu_cxx17__normal_iteratorIP5QuerySt6vectorIS2_SaIS2_EEEEZ9solveRectvEUlS2_S2_E_EvT_S9_T0_, symObjAddr: 0x908, symBinAddr: 0x100004594, symSize: 0x40 }
  - { offsetInCU: 0x1770C, offset: 0x1770C, size: 0x8, addend: 0x0, symName: __ZNSt6vectorI5QuerySaIS0_EE5beginEv, symObjAddr: 0x8BC, symBinAddr: 0x100004548, symSize: 0x24 }
  - { offsetInCU: 0x17714, offset: 0x17714, size: 0x8, addend: 0x0, symName: __ZNSt6vectorI5QuerySaIS0_EE3endEv, symObjAddr: 0x8E0, symBinAddr: 0x10000456C, symSize: 0x28 }
  - { offsetInCU: 0x17789, offset: 0x17789, size: 0x8, addend: 0x0, symName: __ZNSt12_Vector_baseI5QuerySaIS0_EED2Ev, symObjAddr: 0x86C, symBinAddr: 0x1000044F8, symSize: 0x50 }
  - { offsetInCU: 0x17791, offset: 0x17791, size: 0x8, addend: 0x0, symName: __ZNSt6vectorI5QuerySaIS0_EE5beginEv, symObjAddr: 0x8BC, symBinAddr: 0x100004548, symSize: 0x24 }
  - { offsetInCU: 0x17805, offset: 0x17805, size: 0x8, addend: 0x0, symName: __ZNSt12_Vector_baseI5QuerySaIS0_EE12_Vector_implC1Ev, symObjAddr: 0x834, symBinAddr: 0x1000044C0, symSize: 0x38 }
  - { offsetInCU: 0x1780D, offset: 0x1780D, size: 0x8, addend: 0x0, symName: __ZNSt12_Vector_baseI5QuerySaIS0_EED2Ev, symObjAddr: 0x86C, symBinAddr: 0x1000044F8, symSize: 0x50 }
  - { offsetInCU: 0x1787C, offset: 0x1787C, size: 0x8, addend: 0x0, symName: __ZSt3maxImERKT_S2_S2_, symObjAddr: 0x7FC, symBinAddr: 0x100004488, symSize: 0x38 }
  - { offsetInCU: 0x17884, offset: 0x17884, size: 0x8, addend: 0x0, symName: __ZNSt12_Vector_baseI5QuerySaIS0_EE12_Vector_implC1Ev, symObjAddr: 0x834, symBinAddr: 0x1000044C0, symSize: 0x38 }
  - { offsetInCU: 0x178B4, offset: 0x178B4, size: 0x8, addend: 0x0, symName: _main, symObjAddr: 0x688, symBinAddr: 0x100004314, symSize: 0x174 }
  - { offsetInCU: 0x178BC, offset: 0x178BC, size: 0x8, addend: 0x0, symName: __ZSt3maxImERKT_S2_S2_, symObjAddr: 0x7FC, symBinAddr: 0x100004488, symSize: 0x38 }
  - { offsetInCU: 0x17962, offset: 0x17962, size: 0x8, addend: 0x0, symName: __Z9solveRectv, symObjAddr: 0x530, symBinAddr: 0x1000041BC, symSize: 0x158 }
  - { offsetInCU: 0x1796A, offset: 0x1796A, size: 0x8, addend: 0x0, symName: _main, symObjAddr: 0x688, symBinAddr: 0x100004314, symSize: 0x174 }
  - { offsetInCU: 0x179ED, offset: 0x179ED, size: 0x8, addend: 0x0, symName: __ZZ9solveRectvENKUl5QueryS_E_clES_S_, symObjAddr: 0x504, symBinAddr: 0x100004190, symSize: 0x2C }
  - { offsetInCU: 0x179F5, offset: 0x179F5, size: 0x8, addend: 0x0, symName: __Z9solveRectv, symObjAddr: 0x530, symBinAddr: 0x1000041BC, symSize: 0x158 }
  - { offsetInCU: 0x17A9D, offset: 0x17A9D, size: 0x8, addend: 0x0, symName: __Z6updatexxxxxx, symObjAddr: 0x340, symBinAddr: 0x100003FCC, symSize: 0x1C4 }
  - { offsetInCU: 0x17AA5, offset: 0x17AA5, size: 0x8, addend: 0x0, symName: __ZZ9solveRectvENKUl5QueryS_E_clES_S_, symObjAddr: 0x504, symBinAddr: 0x100004190, symSize: 0x2C }
  - { offsetInCU: 0x17B77, offset: 0x17B77, size: 0x8, addend: 0x0, symName: __ZNSt6vectorI5QuerySaIS0_EEC1Ev, symObjAddr: 0x320, symBinAddr: 0x100003FAC, symSize: 0x20 }
  - { offsetInCU: 0x17B7F, offset: 0x17B7F, size: 0x8, addend: 0x0, symName: __Z6updatexxxxxx, symObjAddr: 0x340, symBinAddr: 0x100003FCC, symSize: 0x1C4 }
  - { offsetInCU: 0x17BC5, offset: 0x17BC5, size: 0x8, addend: 0x0, symName: __ZNSt12_Vector_baseI5QuerySaIS0_EEC2Ev, symObjAddr: 0x300, symBinAddr: 0x100003F8C, symSize: 0x20 }
  - { offsetInCU: 0x17BCD, offset: 0x17BCD, size: 0x8, addend: 0x0, symName: __ZNSt6vectorI5QuerySaIS0_EEC1Ev, symObjAddr: 0x320, symBinAddr: 0x100003FAC, symSize: 0x20 }
  - { offsetInCU: 0x17C2C, offset: 0x17C2C, size: 0x8, addend: 0x0, symName: __ZNSt12_Vector_baseI5QuerySaIS0_EE12_Vector_implD1Ev, symObjAddr: 0x2D4, symBinAddr: 0x100003F60, symSize: 0x2C }
  - { offsetInCU: 0x17C34, offset: 0x17C34, size: 0x8, addend: 0x0, symName: __ZNSt12_Vector_baseI5QuerySaIS0_EEC2Ev, symObjAddr: 0x300, symBinAddr: 0x100003F8C, symSize: 0x20 }
  - { offsetInCU: 0x17C5E, offset: 0x17C5E, size: 0x8, addend: 0x0, symName: __Z6_printv, symObjAddr: 0x2AC, symBinAddr: 0x100003F38, symSize: 0x28 }
  - { offsetInCU: 0x17C66, offset: 0x17C66, size: 0x8, addend: 0x0, symName: __ZNSt12_Vector_baseI5QuerySaIS0_EE12_Vector_implD1Ev, symObjAddr: 0x2D4, symBinAddr: 0x100003F60, symSize: 0x2C }
  - { offsetInCU: 0x17C7D, offset: 0x17C7D, size: 0x8, addend: 0x0, symName: __Z7__printb, symObjAddr: 0x260, symBinAddr: 0x100003EEC, symSize: 0x4C }
  - { offsetInCU: 0x17C85, offset: 0x17C85, size: 0x8, addend: 0x0, symName: __Z6_printv, symObjAddr: 0x2AC, symBinAddr: 0x100003F38, symSize: 0x28 }
  - { offsetInCU: 0x17CE7, offset: 0x17CE7, size: 0x8, addend: 0x0, symName: __Z7__printRKNSt7__cxx1112basic_stringIcSt11char_traitsIcESaIcEEE, symObjAddr: 0x228, symBinAddr: 0x100003EB4, symSize: 0x38 }
  - { offsetInCU: 0x17CEF, offset: 0x17CEF, size: 0x8, addend: 0x0, symName: __Z7__printb, symObjAddr: 0x260, symBinAddr: 0x100003EEC, symSize: 0x4C }
  - { offsetInCU: 0x17CE9, offset: 0x17CE9, size: 0x8, addend: 0x0, symName: __Z7__printPKc, symObjAddr: 0x1F0, symBinAddr: 0x100003E7C, symSize: 0x38 }
  - { offsetInCU: 0x17CF1, offset: 0x17CF1, size: 0x8, addend: 0x0, symName: __Z7__printRKNSt7__cxx1112basic_stringIcSt11char_traitsIcESaIcEEE, symObjAddr: 0x228, symBinAddr: 0x100003EB4, symSize: 0x38 }
  - { offsetInCU: 0x17D1C, offset: 0x17D1C, size: 0x8, addend: 0x0, symName: __Z7__printc, symObjAddr: 0x1B8, symBinAddr: 0x100003E44, symSize: 0x38 }
  - { offsetInCU: 0x17D24, offset: 0x17D24, size: 0x8, addend: 0x0, symName: __Z7__printPKc, symObjAddr: 0x1F0, symBinAddr: 0x100003E7C, symSize: 0x38 }
  - { offsetInCU: 0x17D51, offset: 0x17D51, size: 0x8, addend: 0x0, symName: __Z7__printe, symObjAddr: 0x190, symBinAddr: 0x100003E1C, symSize: 0x28 }
  - { offsetInCU: 0x17D59, offset: 0x17D59, size: 0x8, addend: 0x0, symName: __Z7__printc, symObjAddr: 0x1B8, symBinAddr: 0x100003E44, symSize: 0x38 }
  - { offsetInCU: 0x17D86, offset: 0x17D86, size: 0x8, addend: 0x0, symName: __Z7__printd, symObjAddr: 0x168, symBinAddr: 0x100003DF4, symSize: 0x28 }
  - { offsetInCU: 0x17D8E, offset: 0x17D8E, size: 0x8, addend: 0x0, symName: __Z7__printe, symObjAddr: 0x190, symBinAddr: 0x100003E1C, symSize: 0x28 }
  - { offsetInCU: 0x17DBB, offset: 0x17DBB, size: 0x8, addend: 0x0, symName: __Z7__printf, symObjAddr: 0x140, symBinAddr: 0x100003DCC, symSize: 0x28 }
  - { offsetInCU: 0x17DC3, offset: 0x17DC3, size: 0x8, addend: 0x0, symName: __Z7__printd, symObjAddr: 0x168, symBinAddr: 0x100003DF4, symSize: 0x28 }
  - { offsetInCU: 0x17DF0, offset: 0x17DF0, size: 0x8, addend: 0x0, symName: __Z7__printy, symObjAddr: 0x118, symBinAddr: 0x100003DA4, symSize: 0x28 }
  - { offsetInCU: 0x17DF8, offset: 0x17DF8, size: 0x8, addend: 0x0, symName: __Z7__printf, symObjAddr: 0x140, symBinAddr: 0x100003DCC, symSize: 0x28 }
  - { offsetInCU: 0x17E25, offset: 0x17E25, size: 0x8, addend: 0x0, symName: __Z7__printm, symObjAddr: 0xF0, symBinAddr: 0x100003D7C, symSize: 0x28 }
  - { offsetInCU: 0x17E2D, offset: 0x17E2D, size: 0x8, addend: 0x0, symName: __Z7__printy, symObjAddr: 0x118, symBinAddr: 0x100003DA4, symSize: 0x28 }
  - { offsetInCU: 0x17E5A, offset: 0x17E5A, size: 0x8, addend: 0x0, symName: __Z7__printj, symObjAddr: 0xC8, symBinAddr: 0x100003D54, symSize: 0x28 }
  - { offsetInCU: 0x17E62, offset: 0x17E62, size: 0x8, addend: 0x0, symName: __Z7__printm, symObjAddr: 0xF0, symBinAddr: 0x100003D7C, symSize: 0x28 }
  - { offsetInCU: 0x17E8F, offset: 0x17E8F, size: 0x8, addend: 0x0, symName: __Z7__printx, symObjAddr: 0xA0, symBinAddr: 0x100003D2C, symSize: 0x28 }
  - { offsetInCU: 0x17E97, offset: 0x17E97, size: 0x8, addend: 0x0, symName: __Z7__printj, symObjAddr: 0xC8, symBinAddr: 0x100003D54, symSize: 0x28 }
  - { offsetInCU: 0x17EC4, offset: 0x17EC4, size: 0x8, addend: 0x0, symName: __Z7__printl, symObjAddr: 0x78, symBinAddr: 0x100003D04, symSize: 0x28 }
  - { offsetInCU: 0x17ECC, offset: 0x17ECC, size: 0x8, addend: 0x0, symName: __Z7__printx, symObjAddr: 0xA0, symBinAddr: 0x100003D2C, symSize: 0x28 }
  - { offsetInCU: 0x17EF9, offset: 0x17EF9, size: 0x8, addend: 0x0, symName: __Z7__printi, symObjAddr: 0x50, symBinAddr: 0x100003CDC, symSize: 0x28 }
  - { offsetInCU: 0x17F01, offset: 0x17F01, size: 0x8, addend: 0x0, symName: __Z7__printl, symObjAddr: 0x78, symBinAddr: 0x100003D04, symSize: 0x28 }
  - { offsetInCU: 0x17F4F, offset: 0x17F4F, size: 0x8, addend: 0x0, symName: __ZSt3minImERKT_S2_S2_, symObjAddr: 0x18, symBinAddr: 0x100003CA4, symSize: 0x38 }
  - { offsetInCU: 0x17F57, offset: 0x17F57, size: 0x8, addend: 0x0, symName: __Z7__printi, symObjAddr: 0x50, symBinAddr: 0x100003CDC, symSize: 0x28 }
  - { offsetInCU: 0x17F8D, offset: 0x17F8D, size: 0x8, addend: 0x0, symName: __ZnwmPv, symObjAddr: 0x0, symBinAddr: 0x100003C8C, symSize: 0x18 }
  - { offsetInCU: 0x17F95, offset: 0x17F95, size: 0x8, addend: 0x0, symName: __ZSt3minImERKT_S2_S2_, symObjAddr: 0x18, symBinAddr: 0x100003CA4, symSize: 0x38 }
...
