---
triple:          'arm64-apple-darwin'
binary-path:     w
relocations:
  - { offsetInCU: 0xA2, offset: 0xA2, size: 0x8, addend: 0x0, symName: __ZnwmPv, symObjAddr: 0x0, symBinAddr: 0x100003C98, symSize: 0x18 }
  - { offsetInCU: 0x11D7F, offset: 0x11D7F, size: 0x8, addend: 0x0, symName: __ZStL8__ioinit, symObjAddr: 0x72250, symBinAddr: 0x10000C004, symSize: 0x0 }
  - { offsetInCU: 0x127E1, offset: 0x127E1, size: 0x8, addend: 0x0, symName: __ZL1N, symObjAddr: 0x2770, symBinAddr: 0x1000067F0, symSize: 0x0 }
  - { offsetInCU: 0x12817, offset: 0x12817, size: 0x8, addend: 0x0, symName: _parent, symObjAddr: 0x72258, symBinAddr: 0x10000C008, symSize: 0x0 }
  - { offsetInCU: 0x14395, offset: 0x14395, size: 0x8, addend: 0x0, symName: _a, symObjAddr: 0x85B30, symBinAddr: 0x10001F8E0, symSize: 0x0 }
  - { offsetInCU: 0x14ED4, offset: 0x14ED4, size: 0x8, addend: 0x0, symName: __ZNSt8__detail30__integer_to_chars_is_unsignedIjEE, symObjAddr: 0x2778, symBinAddr: 0x1000067F8, symSize: 0x0 }
  - { offsetInCU: 0x14EEE, offset: 0x14EEE, size: 0x8, addend: 0x0, symName: __ZNSt8__detail30__integer_to_chars_is_unsignedImEE, symObjAddr: 0x2779, symBinAddr: 0x1000067F9, symSize: 0x0 }
  - { offsetInCU: 0x14F08, offset: 0x14F08, size: 0x8, addend: 0x0, symName: __ZNSt8__detail30__integer_to_chars_is_unsignedIyEE, symObjAddr: 0x277A, symBinAddr: 0x1000067FA, symSize: 0x0 }
  - { offsetInCU: 0x15033, offset: 0x15033, size: 0x8, addend: 0x0, symName: __ZNSt8__detail30__integer_to_chars_is_unsignedIoEE, symObjAddr: 0x277B, symBinAddr: 0x1000067FB, symSize: 0x0 }
  - { offsetInCU: 0x1508A, offset: 0x1508A, size: 0x8, addend: 0x0, symName: __GLOBAL__sub_I_w.cpp, symObjAddr: 0x2724, symBinAddr: 0x1000063BC, symSize: 0x14 }
  - { offsetInCU: 0x150D7, offset: 0x150D7, size: 0x8, addend: 0x0, symName: __ZNSt6vectorI4EdgeSaIS0_EED1Ev, symObjAddr: 0x26C8, symBinAddr: 0x100006360, symSize: 0x5C }
  - { offsetInCU: 0x150DF, offset: 0x150DF, size: 0x8, addend: 0x0, symName: __GLOBAL__sub_I_w.cpp, symObjAddr: 0x2724, symBinAddr: 0x1000063BC, symSize: 0x14 }
  - { offsetInCU: 0x1514C, offset: 0x1514C, size: 0x8, addend: 0x0, symName: __Z41__static_initialization_and_destruction_0v, symObjAddr: 0x2664, symBinAddr: 0x1000062FC, symSize: 0x64 }
  - { offsetInCU: 0x15154, offset: 0x15154, size: 0x8, addend: 0x0, symName: __ZNSt6vectorI4EdgeSaIS0_EED1Ev, symObjAddr: 0x26C8, symBinAddr: 0x100006360, symSize: 0x5C }
  - { offsetInCU: 0x1513E, offset: 0x1513E, size: 0x8, addend: 0x0, symName: __ZNSt11__copy_moveILb1ELb0ESt26random_access_iterator_tagE12__assign_oneI4EdgeS3_EEvPT_PT0_, symObjAddr: 0x2620, symBinAddr: 0x1000062B8, symSize: 0x44 }
  - { offsetInCU: 0x15146, offset: 0x15146, size: 0x8, addend: 0x0, symName: __Z41__static_initialization_and_destruction_0v, symObjAddr: 0x2664, symBinAddr: 0x1000062FC, symSize: 0x64 }
  - { offsetInCU: 0x1519E, offset: 0x1519E, size: 0x8, addend: 0x0, symName: __ZNSt20__copy_move_backwardILb1ELb1ESt26random_access_iterator_tagE13__copy_move_bI4EdgeS3_EEPT0_PT_S7_S5_, symObjAddr: 0x2544, symBinAddr: 0x1000061DC, symSize: 0xDC }
  - { offsetInCU: 0x151A6, offset: 0x151A6, size: 0x8, addend: 0x0, symName: __ZNSt11__copy_moveILb1ELb0ESt26random_access_iterator_tagE12__assign_oneI4EdgeS3_EEvPT_PT0_, symObjAddr: 0x2620, symBinAddr: 0x1000062B8, symSize: 0x44 }
  - { offsetInCU: 0x15226, offset: 0x15226, size: 0x8, addend: 0x0, symName: __ZN9__gnu_cxx5__ops14_Iter_comp_valIZ4mainEUl4EdgeS2_E_EclINS_17__normal_iteratorIPS2_St6vectorIS2_SaIS2_EEEES2_EEbT_RT0_, symObjAddr: 0x24C4, symBinAddr: 0x10000615C, symSize: 0x80 }
  - { offsetInCU: 0x1522E, offset: 0x1522E, size: 0x8, addend: 0x0, symName: __ZNSt20__copy_move_backwardILb1ELb1ESt26random_access_iterator_tagE13__copy_move_bI4EdgeS3_EEPT0_PT_S7_S5_, symObjAddr: 0x2544, symBinAddr: 0x1000061DC, symSize: 0xDC }
  - { offsetInCU: 0x152FF, offset: 0x152FF, size: 0x8, addend: 0x0, symName: __ZSt23__copy_move_backward_a2ILb1EP4EdgeS1_ET1_T0_S3_S2_, symObjAddr: 0x2498, symBinAddr: 0x100006130, symSize: 0x2C }
  - { offsetInCU: 0x15307, offset: 0x15307, size: 0x8, addend: 0x0, symName: __ZN9__gnu_cxx5__ops14_Iter_comp_valIZ4mainEUl4EdgeS2_E_EclINS_17__normal_iteratorIPS2_St6vectorIS2_SaIS2_EEEES2_EEbT_RT0_, symObjAddr: 0x24C4, symBinAddr: 0x10000615C, symSize: 0x80 }
  - { offsetInCU: 0x153BB, offset: 0x153BB, size: 0x8, addend: 0x0, symName: __ZSt11__push_heapIN9__gnu_cxx17__normal_iteratorIP4EdgeSt6vectorIS2_SaIS2_EEEElS2_NS0_5__ops14_Iter_comp_valIZ4mainEUlS2_S2_E_EEEvT_T0_SD_T1_RT2_, symObjAddr: 0x234C, symBinAddr: 0x100005FE4, symSize: 0x14C }
  - { offsetInCU: 0x153C3, offset: 0x153C3, size: 0x8, addend: 0x0, symName: __ZSt23__copy_move_backward_a2ILb1EP4EdgeS1_ET1_T0_S3_S2_, symObjAddr: 0x2498, symBinAddr: 0x100006130, symSize: 0x2C }
  - { offsetInCU: 0x1541B, offset: 0x1541B, size: 0x8, addend: 0x0, symName: __ZN9__gnu_cxx5__ops14_Iter_comp_valIZ4mainEUl4EdgeS2_E_EC1EONS0_15_Iter_comp_iterIS3_EE, symObjAddr: 0x2328, symBinAddr: 0x100005FC0, symSize: 0x24 }
  - { offsetInCU: 0x15423, offset: 0x15423, size: 0x8, addend: 0x0, symName: __ZSt11__push_heapIN9__gnu_cxx17__normal_iteratorIP4EdgeSt6vectorIS2_SaIS2_EEEElS2_NS0_5__ops14_Iter_comp_valIZ4mainEUlS2_S2_E_EEEvT_T0_SD_T1_RT2_, symObjAddr: 0x234C, symBinAddr: 0x100005FE4, symSize: 0x14C }
  - { offsetInCU: 0x15517, offset: 0x15517, size: 0x8, addend: 0x0, symName: __ZSt12__niter_wrapIN9__gnu_cxx17__normal_iteratorIP4EdgeSt6vectorIS2_SaIS2_EEEES3_ET_S8_T0_, symObjAddr: 0x22E0, symBinAddr: 0x100005F78, symSize: 0x48 }
  - { offsetInCU: 0x1551F, offset: 0x1551F, size: 0x8, addend: 0x0, symName: __ZN9__gnu_cxx5__ops14_Iter_comp_valIZ4mainEUl4EdgeS2_E_EC1EONS0_15_Iter_comp_iterIS3_EE, symObjAddr: 0x2328, symBinAddr: 0x100005FC0, symSize: 0x24 }
  - { offsetInCU: 0x15540, offset: 0x15540, size: 0x8, addend: 0x0, symName: __ZSt23__copy_move_backward_a1ILb1EP4EdgeS1_ET1_T0_S3_S2_, symObjAddr: 0x22B4, symBinAddr: 0x100005F4C, symSize: 0x2C }
  - { offsetInCU: 0x15548, offset: 0x15548, size: 0x8, addend: 0x0, symName: __ZSt12__niter_wrapIN9__gnu_cxx17__normal_iteratorIP4EdgeSt6vectorIS2_SaIS2_EEEES3_ET_S8_T0_, symObjAddr: 0x22E0, symBinAddr: 0x100005F78, symSize: 0x48 }
  - { offsetInCU: 0x155EB, offset: 0x155EB, size: 0x8, addend: 0x0, symName: __ZSt12__niter_baseIP4EdgeSt6vectorIS0_SaIS0_EEET_N9__gnu_cxx17__normal_iteratorIS5_T0_EE, symObjAddr: 0x2294, symBinAddr: 0x100005F2C, symSize: 0x20 }
  - { offsetInCU: 0x155F3, offset: 0x155F3, size: 0x8, addend: 0x0, symName: __ZSt23__copy_move_backward_a1ILb1EP4EdgeS1_ET1_T0_S3_S2_, symObjAddr: 0x22B4, symBinAddr: 0x100005F4C, symSize: 0x2C }
  - { offsetInCU: 0x1566A, offset: 0x1566A, size: 0x8, addend: 0x0, symName: __ZSt4swapI4EdgeENSt9enable_ifIXsrSt6__and_IJSt6__not_ISt15__is_tuple_likeIT_EESt21is_move_constructibleIS5_ESt18is_move_assignableIS5_EEE5valueEvE4typeERS5_SF_, symObjAddr: 0x2208, symBinAddr: 0x100005EA0, symSize: 0x8C }
  - { offsetInCU: 0x15672, offset: 0x15672, size: 0x8, addend: 0x0, symName: __ZSt12__niter_baseIP4EdgeSt6vectorIS0_SaIS0_EEET_N9__gnu_cxx17__normal_iteratorIS5_T0_EE, symObjAddr: 0x2294, symBinAddr: 0x100005F2C, symSize: 0x20 }
  - { offsetInCU: 0x156C0, offset: 0x156C0, size: 0x8, addend: 0x0, symName: __ZSt13__adjust_heapIN9__gnu_cxx17__normal_iteratorIP4EdgeSt6vectorIS2_SaIS2_EEEElS2_NS0_5__ops15_Iter_comp_iterIZ4mainEUlS2_S2_E_EEEvT_T0_SD_T1_T2_, symObjAddr: 0x1FF0, symBinAddr: 0x100005C88, symSize: 0x218 }
  - { offsetInCU: 0x156C8, offset: 0x156C8, size: 0x8, addend: 0x0, symName: __ZSt4swapI4EdgeENSt9enable_ifIXsrSt6__and_IJSt6__not_ISt15__is_tuple_likeIT_EESt21is_move_constructibleIS5_ESt18is_move_assignableIS5_EEE5valueEvE4typeERS5_SF_, symObjAddr: 0x2208, symBinAddr: 0x100005EA0, symSize: 0x8C }
  - { offsetInCU: 0x15748, offset: 0x15748, size: 0x8, addend: 0x0, symName: __ZN9__gnu_cxx5__ops14_Val_comp_iterIZ4mainEUl4EdgeS2_E_EclIS2_NS_17__normal_iteratorIPS2_St6vectorIS2_SaIS2_EEEEEEbRT_T0_, symObjAddr: 0x1F6C, symBinAddr: 0x100005C04, symSize: 0x84 }
  - { offsetInCU: 0x15750, offset: 0x15750, size: 0x8, addend: 0x0, symName: __ZSt13__adjust_heapIN9__gnu_cxx17__normal_iteratorIP4EdgeSt6vectorIS2_SaIS2_EEEElS2_NS0_5__ops15_Iter_comp_iterIZ4mainEUlS2_S2_E_EEEvT_T0_SD_T1_T2_, symObjAddr: 0x1FF0, symBinAddr: 0x100005C88, symSize: 0x218 }
  - { offsetInCU: 0x157E1, offset: 0x157E1, size: 0x8, addend: 0x0, symName: __ZN9__gnu_cxx5__ops14_Val_comp_iterIZ4mainEUl4EdgeS2_E_EC1EONS0_15_Iter_comp_iterIS3_EE, symObjAddr: 0x1F48, symBinAddr: 0x100005BE0, symSize: 0x24 }
  - { offsetInCU: 0x157E9, offset: 0x157E9, size: 0x8, addend: 0x0, symName: __ZN9__gnu_cxx5__ops14_Val_comp_iterIZ4mainEUl4EdgeS2_E_EclIS2_NS_17__normal_iteratorIPS2_St6vectorIS2_SaIS2_EEEEEEbRT_T0_, symObjAddr: 0x1F6C, symBinAddr: 0x100005C04, symSize: 0x84 }
  - { offsetInCU: 0x15862, offset: 0x15862, size: 0x8, addend: 0x0, symName: __ZSt4moveIRN9__gnu_cxx5__ops15_Iter_comp_iterIZ4mainEUl4EdgeS3_E_EEEONSt16remove_referenceIT_E4typeEOS8_, symObjAddr: 0x1F34, symBinAddr: 0x100005BCC, symSize: 0x14 }
  - { offsetInCU: 0x1586A, offset: 0x1586A, size: 0x8, addend: 0x0, symName: __ZN9__gnu_cxx5__ops14_Val_comp_iterIZ4mainEUl4EdgeS2_E_EC1EONS0_15_Iter_comp_iterIS3_EE, symObjAddr: 0x1F48, symBinAddr: 0x100005BE0, symSize: 0x24 }
  - { offsetInCU: 0x15972, offset: 0x15972, size: 0x8, addend: 0x0, symName: __ZSt22__copy_move_backward_aILb1EN9__gnu_cxx17__normal_iteratorIP4EdgeSt6vectorIS2_SaIS2_EEEES7_ET1_T0_S9_S8_, symObjAddr: 0x1ED4, symBinAddr: 0x100005B6C, symSize: 0x60 }
  - { offsetInCU: 0x1597A, offset: 0x1597A, size: 0x8, addend: 0x0, symName: __ZSt4moveIRN9__gnu_cxx5__ops15_Iter_comp_iterIZ4mainEUl4EdgeS3_E_EEEONSt16remove_referenceIT_E4typeEOS8_, symObjAddr: 0x1F34, symBinAddr: 0x100005BCC, symSize: 0x14 }
  - { offsetInCU: 0x159A0, offset: 0x159A0, size: 0x8, addend: 0x0, symName: __ZSt12__miter_baseIN9__gnu_cxx17__normal_iteratorIP4EdgeSt6vectorIS2_SaIS2_EEEEET_S8_, symObjAddr: 0x1EC0, symBinAddr: 0x100005B58, symSize: 0x14 }
  - { offsetInCU: 0x159A8, offset: 0x159A8, size: 0x8, addend: 0x0, symName: __ZSt22__copy_move_backward_aILb1EN9__gnu_cxx17__normal_iteratorIP4EdgeSt6vectorIS2_SaIS2_EEEES7_ET1_T0_S9_S8_, symObjAddr: 0x1ED4, symBinAddr: 0x100005B6C, symSize: 0x60 }
  - { offsetInCU: 0x15A1E, offset: 0x15A1E, size: 0x8, addend: 0x0, symName: __ZSt9iter_swapIN9__gnu_cxx17__normal_iteratorIP4EdgeSt6vectorIS2_SaIS2_EEEES7_EvT_T0_, symObjAddr: 0x1E7C, symBinAddr: 0x100005B14, symSize: 0x44 }
  - { offsetInCU: 0x15A26, offset: 0x15A26, size: 0x8, addend: 0x0, symName: __ZSt12__miter_baseIN9__gnu_cxx17__normal_iteratorIP4EdgeSt6vectorIS2_SaIS2_EEEEET_S8_, symObjAddr: 0x1EC0, symBinAddr: 0x100005B58, symSize: 0x14 }
  - { offsetInCU: 0x159AC, offset: 0x159AC, size: 0x8, addend: 0x0, symName: __ZN9__gnu_cxx17__normal_iteratorIP4EdgeSt6vectorIS1_SaIS1_EEEmmEv, symObjAddr: 0x1E54, symBinAddr: 0x100005AEC, symSize: 0x28 }
  - { offsetInCU: 0x159B4, offset: 0x159B4, size: 0x8, addend: 0x0, symName: __ZSt9iter_swapIN9__gnu_cxx17__normal_iteratorIP4EdgeSt6vectorIS2_SaIS2_EEEES7_EvT_T0_, symObjAddr: 0x1E7C, symBinAddr: 0x100005B14, symSize: 0x44 }
  - { offsetInCU: 0x15A62, offset: 0x15A62, size: 0x8, addend: 0x0, symName: __ZSt10__pop_heapIN9__gnu_cxx17__normal_iteratorIP4EdgeSt6vectorIS2_SaIS2_EEEENS0_5__ops15_Iter_comp_iterIZ4mainEUlS2_S2_E_EEEvT_SC_SC_RT0_, symObjAddr: 0x1D84, symBinAddr: 0x100005A1C, symSize: 0xD0 }
  - { offsetInCU: 0x15A6A, offset: 0x15A6A, size: 0x8, addend: 0x0, symName: __ZN9__gnu_cxx17__normal_iteratorIP4EdgeSt6vectorIS1_SaIS1_EEEmmEv, symObjAddr: 0x1E54, symBinAddr: 0x100005AEC, symSize: 0x28 }
  - { offsetInCU: 0x15B11, offset: 0x15B11, size: 0x8, addend: 0x0, symName: __ZN9__gnu_cxxltIP4EdgeSt6vectorIS1_SaIS1_EEEEbRKNS_17__normal_iteratorIT_T0_EESB_, symObjAddr: 0x1D40, symBinAddr: 0x1000059D8, symSize: 0x44 }
  - { offsetInCU: 0x15B19, offset: 0x15B19, size: 0x8, addend: 0x0, symName: __ZSt10__pop_heapIN9__gnu_cxx17__normal_iteratorIP4EdgeSt6vectorIS2_SaIS2_EEEENS0_5__ops15_Iter_comp_iterIZ4mainEUlS2_S2_E_EEEvT_SC_SC_RT0_, symObjAddr: 0x1D84, symBinAddr: 0x100005A1C, symSize: 0xD0 }
  - { offsetInCU: 0x15B93, offset: 0x15B93, size: 0x8, addend: 0x0, symName: __ZSt11__make_heapIN9__gnu_cxx17__normal_iteratorIP4EdgeSt6vectorIS2_SaIS2_EEEENS0_5__ops15_Iter_comp_iterIZ4mainEUlS2_S2_E_EEEvT_SC_RT0_, symObjAddr: 0x1C3C, symBinAddr: 0x1000058D4, symSize: 0x104 }
  - { offsetInCU: 0x15B9B, offset: 0x15B9B, size: 0x8, addend: 0x0, symName: __ZN9__gnu_cxxltIP4EdgeSt6vectorIS1_SaIS1_EEEEbRKNS_17__normal_iteratorIT_T0_EESB_, symObjAddr: 0x1D40, symBinAddr: 0x1000059D8, symSize: 0x44 }
  - { offsetInCU: 0x15BF9, offset: 0x15BF9, size: 0x8, addend: 0x0, symName: __ZNSt12_Destroy_auxILb1EE9__destroyIP4EdgeEEvT_S4_, symObjAddr: 0x1C24, symBinAddr: 0x1000058BC, symSize: 0x18 }
  - { offsetInCU: 0x15C01, offset: 0x15C01, size: 0x8, addend: 0x0, symName: __ZSt11__make_heapIN9__gnu_cxx17__normal_iteratorIP4EdgeSt6vectorIS2_SaIS2_EEEENS0_5__ops15_Iter_comp_iterIZ4mainEUlS2_S2_E_EEEvT_SC_RT0_, symObjAddr: 0x1C3C, symBinAddr: 0x1000058D4, symSize: 0x104 }
  - { offsetInCU: 0x15CE0, offset: 0x15CE0, size: 0x8, addend: 0x0, symName: __ZSt14__relocate_a_1I4EdgeS0_ENSt9enable_ifIXsrSt24__is_bitwise_relocatableIT_vE5valueEPS3_E4typeES5_S5_S5_RSaIT0_E, symObjAddr: 0x1B94, symBinAddr: 0x10000582C, symSize: 0x90 }
  - { offsetInCU: 0x15CE8, offset: 0x15CE8, size: 0x8, addend: 0x0, symName: __ZNSt12_Destroy_auxILb1EE9__destroyIP4EdgeEEvT_S4_, symObjAddr: 0x1C24, symBinAddr: 0x1000058BC, symSize: 0x18 }
  - { offsetInCU: 0x15D2E, offset: 0x15D2E, size: 0x8, addend: 0x0, symName: __ZSt12__niter_baseIP4EdgeET_S2_, symObjAddr: 0x1B80, symBinAddr: 0x100005818, symSize: 0x14 }
  - { offsetInCU: 0x15D36, offset: 0x15D36, size: 0x8, addend: 0x0, symName: __ZSt14__relocate_a_1I4EdgeS0_ENSt9enable_ifIXsrSt24__is_bitwise_relocatableIT_vE5valueEPS3_E4typeES5_S5_S5_RSaIT0_E, symObjAddr: 0x1B94, symBinAddr: 0x10000582C, symSize: 0x90 }
  - { offsetInCU: 0x15D41, offset: 0x15D41, size: 0x8, addend: 0x0, symName: __ZNSt15__new_allocatorI4EdgeE8allocateEmPKv, symObjAddr: 0x1AF0, symBinAddr: 0x100005788, symSize: 0x90 }
  - { offsetInCU: 0x15D49, offset: 0x15D49, size: 0x8, addend: 0x0, symName: __ZSt12__niter_baseIP4EdgeET_S2_, symObjAddr: 0x1B80, symBinAddr: 0x100005818, symSize: 0x14 }
  - { offsetInCU: 0x15DC7, offset: 0x15DC7, size: 0x8, addend: 0x0, symName: __ZNKSt12_Vector_baseI4EdgeSaIS0_EE19_M_get_Tp_allocatorEv, symObjAddr: 0x1ADC, symBinAddr: 0x100005774, symSize: 0x14 }
  - { offsetInCU: 0x15DCF, offset: 0x15DCF, size: 0x8, addend: 0x0, symName: __ZNSt15__new_allocatorI4EdgeE8allocateEmPKv, symObjAddr: 0x1AF0, symBinAddr: 0x100005788, symSize: 0x90 }
  - { offsetInCU: 0x15DF6, offset: 0x15DF6, size: 0x8, addend: 0x0, symName: __ZNSt6vectorI4EdgeSaIS0_EE11_S_max_sizeERKS1_, symObjAddr: 0x1A80, symBinAddr: 0x100005718, symSize: 0x5C }
  - { offsetInCU: 0x15DFE, offset: 0x15DFE, size: 0x8, addend: 0x0, symName: __ZNKSt12_Vector_baseI4EdgeSaIS0_EE19_M_get_Tp_allocatorEv, symObjAddr: 0x1ADC, symBinAddr: 0x100005774, symSize: 0x14 }
  - { offsetInCU: 0x15F57, offset: 0x15F57, size: 0x8, addend: 0x0, symName: __ZSt25__unguarded_linear_insertIN9__gnu_cxx17__normal_iteratorIP4EdgeSt6vectorIS2_SaIS2_EEEENS0_5__ops14_Val_comp_iterIZ4mainEUlS2_S2_E_EEEvT_T0_, symObjAddr: 0x1998, symBinAddr: 0x100005630, symSize: 0xE8 }
  - { offsetInCU: 0x15F5F, offset: 0x15F5F, size: 0x8, addend: 0x0, symName: __ZNSt6vectorI4EdgeSaIS0_EE11_S_max_sizeERKS1_, symObjAddr: 0x1A80, symBinAddr: 0x100005718, symSize: 0x5C }
  - { offsetInCU: 0x15F7D, offset: 0x15F7D, size: 0x8, addend: 0x0, symName: __ZN9__gnu_cxx5__ops15__val_comp_iterIZ4mainEUl4EdgeS2_E_EENS0_14_Val_comp_iterIT_EENS0_15_Iter_comp_iterIS5_EE, symObjAddr: 0x1960, symBinAddr: 0x1000055F8, symSize: 0x38 }
  - { offsetInCU: 0x15F85, offset: 0x15F85, size: 0x8, addend: 0x0, symName: __ZSt25__unguarded_linear_insertIN9__gnu_cxx17__normal_iteratorIP4EdgeSt6vectorIS2_SaIS2_EEEENS0_5__ops14_Val_comp_iterIZ4mainEUlS2_S2_E_EEEvT_T0_, symObjAddr: 0x1998, symBinAddr: 0x100005630, symSize: 0xE8 }
  - { offsetInCU: 0x16075, offset: 0x16075, size: 0x8, addend: 0x0, symName: __ZSt13move_backwardIN9__gnu_cxx17__normal_iteratorIP4EdgeSt6vectorIS2_SaIS2_EEEES7_ET0_T_S9_S8_, symObjAddr: 0x1918, symBinAddr: 0x1000055B0, symSize: 0x48 }
  - { offsetInCU: 0x1607D, offset: 0x1607D, size: 0x8, addend: 0x0, symName: __ZN9__gnu_cxx5__ops15__val_comp_iterIZ4mainEUl4EdgeS2_E_EENS0_14_Val_comp_iterIT_EENS0_15_Iter_comp_iterIS5_EE, symObjAddr: 0x1960, symBinAddr: 0x1000055F8, symSize: 0x38 }
  - { offsetInCU: 0x16010, offset: 0x16010, size: 0x8, addend: 0x0, symName: __ZN9__gnu_cxx5__ops15_Iter_comp_iterIZ4mainEUl4EdgeS2_E_EclINS_17__normal_iteratorIPS2_St6vectorIS2_SaIS2_EEEESB_EEbT_T0_, symObjAddr: 0x188C, symBinAddr: 0x100005524, symSize: 0x8C }
  - { offsetInCU: 0x16018, offset: 0x16018, size: 0x8, addend: 0x0, symName: __ZSt13move_backwardIN9__gnu_cxx17__normal_iteratorIP4EdgeSt6vectorIS2_SaIS2_EEEES7_ET0_T_S9_S8_, symObjAddr: 0x1918, symBinAddr: 0x1000055B0, symSize: 0x48 }
  - { offsetInCU: 0x160FC, offset: 0x160FC, size: 0x8, addend: 0x0, symName: __ZN9__gnu_cxxeqIP4EdgeSt6vectorIS1_SaIS1_EEEEbRKNS_17__normal_iteratorIT_T0_EESB_, symObjAddr: 0x1848, symBinAddr: 0x1000054E0, symSize: 0x44 }
  - { offsetInCU: 0x16104, offset: 0x16104, size: 0x8, addend: 0x0, symName: __ZN9__gnu_cxx5__ops15_Iter_comp_iterIZ4mainEUl4EdgeS2_E_EclINS_17__normal_iteratorIPS2_St6vectorIS2_SaIS2_EEEESB_EEbT_T0_, symObjAddr: 0x188C, symBinAddr: 0x100005524, symSize: 0x8C }
  - { offsetInCU: 0x16183, offset: 0x16183, size: 0x8, addend: 0x0, symName: __ZSt21__unguarded_partitionIN9__gnu_cxx17__normal_iteratorIP4EdgeSt6vectorIS2_SaIS2_EEEENS0_5__ops15_Iter_comp_iterIZ4mainEUlS2_S2_E_EEET_SC_SC_SC_T0_, symObjAddr: 0x1784, symBinAddr: 0x10000541C, symSize: 0xC4 }
  - { offsetInCU: 0x1618B, offset: 0x1618B, size: 0x8, addend: 0x0, symName: __ZN9__gnu_cxxeqIP4EdgeSt6vectorIS1_SaIS1_EEEEbRKNS_17__normal_iteratorIT_T0_EESB_, symObjAddr: 0x1848, symBinAddr: 0x1000054E0, symSize: 0x44 }
  - { offsetInCU: 0x1620F, offset: 0x1620F, size: 0x8, addend: 0x0, symName: __ZSt22__move_median_to_firstIN9__gnu_cxx17__normal_iteratorIP4EdgeSt6vectorIS2_SaIS2_EEEENS0_5__ops15_Iter_comp_iterIZ4mainEUlS2_S2_E_EEEvT_SC_SC_SC_T0_, symObjAddr: 0x1660, symBinAddr: 0x1000052F8, symSize: 0x124 }
  - { offsetInCU: 0x16217, offset: 0x16217, size: 0x8, addend: 0x0, symName: __ZSt21__unguarded_partitionIN9__gnu_cxx17__normal_iteratorIP4EdgeSt6vectorIS2_SaIS2_EEEENS0_5__ops15_Iter_comp_iterIZ4mainEUlS2_S2_E_EEET_SC_SC_SC_T0_, symObjAddr: 0x1784, symBinAddr: 0x10000541C, symSize: 0xC4 }
  - { offsetInCU: 0x1629A, offset: 0x1629A, size: 0x8, addend: 0x0, symName: __ZSt11__sort_heapIN9__gnu_cxx17__normal_iteratorIP4EdgeSt6vectorIS2_SaIS2_EEEENS0_5__ops15_Iter_comp_iterIZ4mainEUlS2_S2_E_EEEvT_SC_RT0_, symObjAddr: 0x15F8, symBinAddr: 0x100005290, symSize: 0x68 }
  - { offsetInCU: 0x162A2, offset: 0x162A2, size: 0x8, addend: 0x0, symName: __ZSt22__move_median_to_firstIN9__gnu_cxx17__normal_iteratorIP4EdgeSt6vectorIS2_SaIS2_EEEENS0_5__ops15_Iter_comp_iterIZ4mainEUlS2_S2_E_EEEvT_SC_SC_SC_T0_, symObjAddr: 0x1660, symBinAddr: 0x1000052F8, symSize: 0x124 }
  - { offsetInCU: 0x16310, offset: 0x16310, size: 0x8, addend: 0x0, symName: __ZSt13__heap_selectIN9__gnu_cxx17__normal_iteratorIP4EdgeSt6vectorIS2_SaIS2_EEEENS0_5__ops15_Iter_comp_iterIZ4mainEUlS2_S2_E_EEEvT_SC_SC_T0_, symObjAddr: 0x1554, symBinAddr: 0x1000051EC, symSize: 0xA4 }
  - { offsetInCU: 0x16318, offset: 0x16318, size: 0x8, addend: 0x0, symName: __ZSt11__sort_heapIN9__gnu_cxx17__normal_iteratorIP4EdgeSt6vectorIS2_SaIS2_EEEENS0_5__ops15_Iter_comp_iterIZ4mainEUlS2_S2_E_EEEvT_SC_RT0_, symObjAddr: 0x15F8, symBinAddr: 0x100005290, symSize: 0x68 }
  - { offsetInCU: 0x16361, offset: 0x16361, size: 0x8, addend: 0x0, symName: __ZSt8_DestroyIP4EdgeEvT_S2_, symObjAddr: 0x152C, symBinAddr: 0x1000051C4, symSize: 0x28 }
  - { offsetInCU: 0x16369, offset: 0x16369, size: 0x8, addend: 0x0, symName: __ZSt13__heap_selectIN9__gnu_cxx17__normal_iteratorIP4EdgeSt6vectorIS2_SaIS2_EEEENS0_5__ops15_Iter_comp_iterIZ4mainEUlS2_S2_E_EEEvT_SC_SC_T0_, symObjAddr: 0x1554, symBinAddr: 0x1000051EC, symSize: 0xA4 }
  - { offsetInCU: 0x163F4, offset: 0x163F4, size: 0x8, addend: 0x0, symName: __ZSt12__relocate_aIP4EdgeS1_SaIS0_EET0_T_S4_S3_RT1_, symObjAddr: 0x14D0, symBinAddr: 0x100005168, symSize: 0x5C }
  - { offsetInCU: 0x163FC, offset: 0x163FC, size: 0x8, addend: 0x0, symName: __ZSt8_DestroyIP4EdgeEvT_S2_, symObjAddr: 0x152C, symBinAddr: 0x1000051C4, symSize: 0x28 }
  - { offsetInCU: 0x16458, offset: 0x16458, size: 0x8, addend: 0x0, symName: __ZNKSt6vectorI4EdgeSaIS0_EE4sizeEv, symObjAddr: 0x149C, symBinAddr: 0x100005134, symSize: 0x34 }
  - { offsetInCU: 0x16460, offset: 0x16460, size: 0x8, addend: 0x0, symName: __ZSt12__relocate_aIP4EdgeS1_SaIS0_EET0_T_S4_S3_RT1_, symObjAddr: 0x14D0, symBinAddr: 0x100005168, symSize: 0x5C }
  - { offsetInCU: 0x16487, offset: 0x16487, size: 0x8, addend: 0x0, symName: __ZNKSt6vectorI4EdgeSaIS0_EE8max_sizeEv, symObjAddr: 0x147C, symBinAddr: 0x100005114, symSize: 0x20 }
  - { offsetInCU: 0x1648F, offset: 0x1648F, size: 0x8, addend: 0x0, symName: __ZNKSt6vectorI4EdgeSaIS0_EE4sizeEv, symObjAddr: 0x149C, symBinAddr: 0x100005134, symSize: 0x34 }
  - { offsetInCU: 0x1654D, offset: 0x1654D, size: 0x8, addend: 0x0, symName: __ZSt26__unguarded_insertion_sortIN9__gnu_cxx17__normal_iteratorIP4EdgeSt6vectorIS2_SaIS2_EEEENS0_5__ops15_Iter_comp_iterIZ4mainEUlS2_S2_E_EEEvT_SC_T0_, symObjAddr: 0x140C, symBinAddr: 0x1000050A4, symSize: 0x70 }
  - { offsetInCU: 0x16555, offset: 0x16555, size: 0x8, addend: 0x0, symName: __ZNKSt6vectorI4EdgeSaIS0_EE8max_sizeEv, symObjAddr: 0x147C, symBinAddr: 0x100005114, symSize: 0x20 }
  - { offsetInCU: 0x165DD, offset: 0x165DD, size: 0x8, addend: 0x0, symName: __ZSt16__insertion_sortIN9__gnu_cxx17__normal_iteratorIP4EdgeSt6vectorIS2_SaIS2_EEEENS0_5__ops15_Iter_comp_iterIZ4mainEUlS2_S2_E_EEEvT_SC_T0_, symObjAddr: 0x12E8, symBinAddr: 0x100004F80, symSize: 0x124 }
  - { offsetInCU: 0x165E5, offset: 0x165E5, size: 0x8, addend: 0x0, symName: __ZSt26__unguarded_insertion_sortIN9__gnu_cxx17__normal_iteratorIP4EdgeSt6vectorIS2_SaIS2_EEEENS0_5__ops15_Iter_comp_iterIZ4mainEUlS2_S2_E_EEEvT_SC_T0_, symObjAddr: 0x140C, symBinAddr: 0x1000050A4, symSize: 0x70 }
  - { offsetInCU: 0x16610, offset: 0x16610, size: 0x8, addend: 0x0, symName: __ZNK9__gnu_cxx17__normal_iteratorIP4EdgeSt6vectorIS1_SaIS1_EEEplEl, symObjAddr: 0x129C, symBinAddr: 0x100004F34, symSize: 0x4C }
  - { offsetInCU: 0x16618, offset: 0x16618, size: 0x8, addend: 0x0, symName: __ZSt16__insertion_sortIN9__gnu_cxx17__normal_iteratorIP4EdgeSt6vectorIS2_SaIS2_EEEENS0_5__ops15_Iter_comp_iterIZ4mainEUlS2_S2_E_EEEvT_SC_T0_, symObjAddr: 0x12E8, symBinAddr: 0x100004F80, symSize: 0x124 }
  - { offsetInCU: 0x166F0, offset: 0x166F0, size: 0x8, addend: 0x0, symName: __ZSt27__unguarded_partition_pivotIN9__gnu_cxx17__normal_iteratorIP4EdgeSt6vectorIS2_SaIS2_EEEENS0_5__ops15_Iter_comp_iterIZ4mainEUlS2_S2_E_EEET_SC_SC_T0_, symObjAddr: 0x1200, symBinAddr: 0x100004E98, symSize: 0x9C }
  - { offsetInCU: 0x166F8, offset: 0x166F8, size: 0x8, addend: 0x0, symName: __ZNK9__gnu_cxx17__normal_iteratorIP4EdgeSt6vectorIS1_SaIS1_EEEplEl, symObjAddr: 0x129C, symBinAddr: 0x100004F34, symSize: 0x4C }
  - { offsetInCU: 0x1676E, offset: 0x1676E, size: 0x8, addend: 0x0, symName: __ZSt14__partial_sortIN9__gnu_cxx17__normal_iteratorIP4EdgeSt6vectorIS2_SaIS2_EEEENS0_5__ops15_Iter_comp_iterIZ4mainEUlS2_S2_E_EEEvT_SC_SC_T0_, symObjAddr: 0x11B4, symBinAddr: 0x100004E4C, symSize: 0x4C }
  - { offsetInCU: 0x16776, offset: 0x16776, size: 0x8, addend: 0x0, symName: __ZSt27__unguarded_partition_pivotIN9__gnu_cxx17__normal_iteratorIP4EdgeSt6vectorIS2_SaIS2_EEEENS0_5__ops15_Iter_comp_iterIZ4mainEUlS2_S2_E_EEET_SC_SC_T0_, symObjAddr: 0x1200, symBinAddr: 0x100004E98, symSize: 0x9C }
  - { offsetInCU: 0x1676B, offset: 0x1676B, size: 0x8, addend: 0x0, symName: __ZNK9__gnu_cxx17__normal_iteratorIP4EdgeSt6vectorIS1_SaIS1_EEEmiEl, symObjAddr: 0x1164, symBinAddr: 0x100004DFC, symSize: 0x50 }
  - { offsetInCU: 0x16773, offset: 0x16773, size: 0x8, addend: 0x0, symName: __ZSt14__partial_sortIN9__gnu_cxx17__normal_iteratorIP4EdgeSt6vectorIS2_SaIS2_EEEENS0_5__ops15_Iter_comp_iterIZ4mainEUlS2_S2_E_EEEvT_SC_SC_T0_, symObjAddr: 0x11B4, symBinAddr: 0x100004E4C, symSize: 0x4C }
  - { offsetInCU: 0x16803, offset: 0x16803, size: 0x8, addend: 0x0, symName: __ZNSt12_Vector_baseI4EdgeSaIS0_EE19_M_get_Tp_allocatorEv, symObjAddr: 0x1150, symBinAddr: 0x100004DE8, symSize: 0x14 }
  - { offsetInCU: 0x1680B, offset: 0x1680B, size: 0x8, addend: 0x0, symName: __ZNK9__gnu_cxx17__normal_iteratorIP4EdgeSt6vectorIS1_SaIS1_EEEmiEl, symObjAddr: 0x1164, symBinAddr: 0x100004DFC, symSize: 0x50 }
  - { offsetInCU: 0x16832, offset: 0x16832, size: 0x8, addend: 0x0, symName: __ZNSt6vectorI4EdgeSaIS0_EE11_S_relocateEPS0_S3_S3_RS1_, symObjAddr: 0x111C, symBinAddr: 0x100004DB4, symSize: 0x34 }
  - { offsetInCU: 0x1683A, offset: 0x1683A, size: 0x8, addend: 0x0, symName: __ZNSt12_Vector_baseI4EdgeSaIS0_EE19_M_get_Tp_allocatorEv, symObjAddr: 0x1150, symBinAddr: 0x100004DE8, symSize: 0x14 }
  - { offsetInCU: 0x168A0, offset: 0x168A0, size: 0x8, addend: 0x0, symName: __ZNSt12_Vector_baseI4EdgeSaIS0_EE11_M_allocateEm, symObjAddr: 0x10CC, symBinAddr: 0x100004D64, symSize: 0x50 }
  - { offsetInCU: 0x168A8, offset: 0x168A8, size: 0x8, addend: 0x0, symName: __ZNSt6vectorI4EdgeSaIS0_EE11_S_relocateEPS0_S3_S3_RS1_, symObjAddr: 0x111C, symBinAddr: 0x100004DB4, symSize: 0x34 }
  - { offsetInCU: 0x16915, offset: 0x16915, size: 0x8, addend: 0x0, symName: __ZNKSt6vectorI4EdgeSaIS0_EE12_M_check_lenEmPKc, symObjAddr: 0xFFC, symBinAddr: 0x100004C94, symSize: 0xD0 }
  - { offsetInCU: 0x1691D, offset: 0x1691D, size: 0x8, addend: 0x0, symName: __ZNSt12_Vector_baseI4EdgeSaIS0_EE11_M_allocateEm, symObjAddr: 0x10CC, symBinAddr: 0x100004D64, symSize: 0x50 }
  - { offsetInCU: 0x169D4, offset: 0x169D4, size: 0x8, addend: 0x0, symName: __ZNSt15__new_allocatorI4EdgeE10deallocateEPS0_m, symObjAddr: 0xFC0, symBinAddr: 0x100004C58, symSize: 0x3C }
  - { offsetInCU: 0x169DC, offset: 0x169DC, size: 0x8, addend: 0x0, symName: __ZNKSt6vectorI4EdgeSaIS0_EE12_M_check_lenEmPKc, symObjAddr: 0xFFC, symBinAddr: 0x100004C94, symSize: 0xD0 }
  - { offsetInCU: 0x16A68, offset: 0x16A68, size: 0x8, addend: 0x0, symName: __ZSt13__countl_zeroImEiT_, symObjAddr: 0xF6C, symBinAddr: 0x100004C04, symSize: 0x54 }
  - { offsetInCU: 0x16A70, offset: 0x16A70, size: 0x8, addend: 0x0, symName: __ZNSt15__new_allocatorI4EdgeE10deallocateEPS0_m, symObjAddr: 0xFC0, symBinAddr: 0x100004C58, symSize: 0x3C }
  - { offsetInCU: 0x16B78, offset: 0x16B78, size: 0x8, addend: 0x0, symName: __ZSt22__final_insertion_sortIN9__gnu_cxx17__normal_iteratorIP4EdgeSt6vectorIS2_SaIS2_EEEENS0_5__ops15_Iter_comp_iterIZ4mainEUlS2_S2_E_EEEvT_SC_T0_, symObjAddr: 0xEE0, symBinAddr: 0x100004B78, symSize: 0x8C }
  - { offsetInCU: 0x16B80, offset: 0x16B80, size: 0x8, addend: 0x0, symName: __ZSt13__countl_zeroImEiT_, symObjAddr: 0xF6C, symBinAddr: 0x100004C04, symSize: 0x54 }
  - { offsetInCU: 0x16BF0, offset: 0x16BF0, size: 0x8, addend: 0x0, symName: __ZSt16__introsort_loopIN9__gnu_cxx17__normal_iteratorIP4EdgeSt6vectorIS2_SaIS2_EEEElNS0_5__ops15_Iter_comp_iterIZ4mainEUlS2_S2_E_EEEvT_SC_T0_T1_, symObjAddr: 0xE38, symBinAddr: 0x100004AD0, symSize: 0xA8 }
  - { offsetInCU: 0x16BF8, offset: 0x16BF8, size: 0x8, addend: 0x0, symName: __ZSt22__final_insertion_sortIN9__gnu_cxx17__normal_iteratorIP4EdgeSt6vectorIS2_SaIS2_EEEENS0_5__ops15_Iter_comp_iterIZ4mainEUlS2_S2_E_EEEvT_SC_T0_, symObjAddr: 0xEE0, symBinAddr: 0x100004B78, symSize: 0x8C }
  - { offsetInCU: 0x16C3A, offset: 0x16C3A, size: 0x8, addend: 0x0, symName: __ZSt4__lgIlET_S0_, symObjAddr: 0xE14, symBinAddr: 0x100004AAC, symSize: 0x24 }
  - { offsetInCU: 0x16C42, offset: 0x16C42, size: 0x8, addend: 0x0, symName: __ZSt16__introsort_loopIN9__gnu_cxx17__normal_iteratorIP4EdgeSt6vectorIS2_SaIS2_EEEElNS0_5__ops15_Iter_comp_iterIZ4mainEUlS2_S2_E_EEEvT_SC_T0_T1_, symObjAddr: 0xE38, symBinAddr: 0x100004AD0, symSize: 0xA8 }
  - { offsetInCU: 0x16CEF, offset: 0x16CEF, size: 0x8, addend: 0x0, symName: __ZN9__gnu_cxxmiIP4EdgeSt6vectorIS1_SaIS1_EEEENS_17__normal_iteratorIT_T0_E15difference_typeERKS9_SC_, symObjAddr: 0xDC8, symBinAddr: 0x100004A60, symSize: 0x4C }
  - { offsetInCU: 0x16CF7, offset: 0x16CF7, size: 0x8, addend: 0x0, symName: __ZSt4__lgIlET_S0_, symObjAddr: 0xE14, symBinAddr: 0x100004AAC, symSize: 0x24 }
  - { offsetInCU: 0x16CF7, offset: 0x16CF7, size: 0x8, addend: 0x0, symName: __ZN9__gnu_cxx5__ops15_Iter_comp_iterIZ4mainEUl4EdgeS2_E_EC1ES3_, symObjAddr: 0xDA4, symBinAddr: 0x100004A3C, symSize: 0x24 }
  - { offsetInCU: 0x16CFF, offset: 0x16CFF, size: 0x8, addend: 0x0, symName: __ZN9__gnu_cxxmiIP4EdgeSt6vectorIS1_SaIS1_EEEENS_17__normal_iteratorIT_T0_E15difference_typeERKS9_SC_, symObjAddr: 0xDC8, symBinAddr: 0x100004A60, symSize: 0x4C }
  - { offsetInCU: 0x16D54, offset: 0x16D54, size: 0x8, addend: 0x0, symName: __ZSt4moveIRZ4mainEUl4EdgeS0_E_EONSt16remove_referenceIT_E4typeEOS4_, symObjAddr: 0xD90, symBinAddr: 0x100004A28, symSize: 0x14 }
  - { offsetInCU: 0x16D5C, offset: 0x16D5C, size: 0x8, addend: 0x0, symName: __ZN9__gnu_cxx5__ops15_Iter_comp_iterIZ4mainEUl4EdgeS2_E_EC1ES3_, symObjAddr: 0xDA4, symBinAddr: 0x100004A3C, symSize: 0x24 }
  - { offsetInCU: 0x16D85, offset: 0x16D85, size: 0x8, addend: 0x0, symName: __ZNSt6vectorI4EdgeSaIS0_EE4backEv, symObjAddr: 0xD58, symBinAddr: 0x1000049F0, symSize: 0x38 }
  - { offsetInCU: 0x16D8D, offset: 0x16D8D, size: 0x8, addend: 0x0, symName: __ZSt4moveIRZ4mainEUl4EdgeS0_E_EONSt16remove_referenceIT_E4typeEOS4_, symObjAddr: 0xD90, symBinAddr: 0x100004A28, symSize: 0x14 }
  - { offsetInCU: 0x16DB4, offset: 0x16DB4, size: 0x8, addend: 0x0, symName: __ZNSt6vectorI4EdgeSaIS0_EE17_M_realloc_insertIJS0_EEEvN9__gnu_cxx17__normal_iteratorIPS0_S2_EEDpOT_, symObjAddr: 0xB5C, symBinAddr: 0x1000047F4, symSize: 0x1FC }
  - { offsetInCU: 0x16DBC, offset: 0x16DBC, size: 0x8, addend: 0x0, symName: __ZNSt6vectorI4EdgeSaIS0_EE4backEv, symObjAddr: 0xD58, symBinAddr: 0x1000049F0, symSize: 0x38 }
  - { offsetInCU: 0x16FB7, offset: 0x16FB7, size: 0x8, addend: 0x0, symName: __ZSt7forwardI4EdgeEOT_RNSt16remove_referenceIS1_E4typeE, symObjAddr: 0xB48, symBinAddr: 0x1000047E0, symSize: 0x14 }
  - { offsetInCU: 0x16FBF, offset: 0x16FBF, size: 0x8, addend: 0x0, symName: __ZNSt6vectorI4EdgeSaIS0_EE17_M_realloc_insertIJS0_EEEvN9__gnu_cxx17__normal_iteratorIPS0_S2_EEDpOT_, symObjAddr: 0xB5C, symBinAddr: 0x1000047F4, symSize: 0x1FC }
  - { offsetInCU: 0x17055, offset: 0x17055, size: 0x8, addend: 0x0, symName: __ZSt11__bit_widthImEiT_, symObjAddr: 0xB18, symBinAddr: 0x1000047B0, symSize: 0x30 }
  - { offsetInCU: 0x1705D, offset: 0x1705D, size: 0x8, addend: 0x0, symName: __ZSt7forwardI4EdgeEOT_RNSt16remove_referenceIS1_E4typeE, symObjAddr: 0xB48, symBinAddr: 0x1000047E0, symSize: 0x14 }
  - { offsetInCU: 0x17079, offset: 0x17079, size: 0x8, addend: 0x0, symName: __ZNK9__gnu_cxx17__normal_iteratorIP4EdgeSt6vectorIS1_SaIS1_EEE4baseEv, symObjAddr: 0xB04, symBinAddr: 0x10000479C, symSize: 0x14 }
  - { offsetInCU: 0x17081, offset: 0x17081, size: 0x8, addend: 0x0, symName: __ZSt11__bit_widthImEiT_, symObjAddr: 0xB18, symBinAddr: 0x1000047B0, symSize: 0x30 }
  - { offsetInCU: 0x1712B, offset: 0x1712B, size: 0x8, addend: 0x0, symName: __ZSt6__sortIN9__gnu_cxx17__normal_iteratorIP4EdgeSt6vectorIS2_SaIS2_EEEENS0_5__ops15_Iter_comp_iterIZ4mainEUlS2_S2_E_EEEvT_SC_T0_, symObjAddr: 0xA90, symBinAddr: 0x100004728, symSize: 0x74 }
  - { offsetInCU: 0x17133, offset: 0x17133, size: 0x8, addend: 0x0, symName: __ZNK9__gnu_cxx17__normal_iteratorIP4EdgeSt6vectorIS1_SaIS1_EEE4baseEv, symObjAddr: 0xB04, symBinAddr: 0x10000479C, symSize: 0x14 }
  - { offsetInCU: 0x17150, offset: 0x17150, size: 0x8, addend: 0x0, symName: __ZN9__gnu_cxx5__ops16__iter_comp_iterIZ4mainEUl4EdgeS2_E_EENS0_15_Iter_comp_iterIT_EES5_, symObjAddr: 0xA58, symBinAddr: 0x1000046F0, symSize: 0x38 }
  - { offsetInCU: 0x17158, offset: 0x17158, size: 0x8, addend: 0x0, symName: __ZSt6__sortIN9__gnu_cxx17__normal_iteratorIP4EdgeSt6vectorIS2_SaIS2_EEEENS0_5__ops15_Iter_comp_iterIZ4mainEUlS2_S2_E_EEEvT_SC_T0_, symObjAddr: 0xA90, symBinAddr: 0x100004728, symSize: 0x74 }
  - { offsetInCU: 0x171D1, offset: 0x171D1, size: 0x8, addend: 0x0, symName: __ZN9__gnu_cxx17__normal_iteratorIP4EdgeSt6vectorIS1_SaIS1_EEEC1ERKS2_, symObjAddr: 0xA30, symBinAddr: 0x1000046C8, symSize: 0x28 }
  - { offsetInCU: 0x171D9, offset: 0x171D9, size: 0x8, addend: 0x0, symName: __ZN9__gnu_cxx5__ops16__iter_comp_iterIZ4mainEUl4EdgeS2_E_EENS0_15_Iter_comp_iterIT_EES5_, symObjAddr: 0xA58, symBinAddr: 0x1000046F0, symSize: 0x38 }
  - { offsetInCU: 0x171C5, offset: 0x171C5, size: 0x8, addend: 0x0, symName: __ZNSt6vectorI4EdgeSaIS0_EE12emplace_backIJS0_EEERS0_DpOT_, symObjAddr: 0x938, symBinAddr: 0x1000045D0, symSize: 0xF8 }
  - { offsetInCU: 0x171CD, offset: 0x171CD, size: 0x8, addend: 0x0, symName: __ZN9__gnu_cxx17__normal_iteratorIP4EdgeSt6vectorIS1_SaIS1_EEEC1ERKS2_, symObjAddr: 0xA30, symBinAddr: 0x1000046C8, symSize: 0x28 }
  - { offsetInCU: 0x172D7, offset: 0x172D7, size: 0x8, addend: 0x0, symName: __ZSt4moveIR4EdgeEONSt16remove_referenceIT_E4typeEOS3_, symObjAddr: 0x924, symBinAddr: 0x1000045BC, symSize: 0x14 }
  - { offsetInCU: 0x172DF, offset: 0x172DF, size: 0x8, addend: 0x0, symName: __ZNSt6vectorI4EdgeSaIS0_EE12emplace_backIJS0_EEERS0_DpOT_, symObjAddr: 0x938, symBinAddr: 0x1000045D0, symSize: 0xF8 }
  - { offsetInCU: 0x172E6, offset: 0x172E6, size: 0x8, addend: 0x0, symName: __ZNSt12_Vector_baseI4EdgeSaIS0_EE13_M_deallocateEPS0_m, symObjAddr: 0x8CC, symBinAddr: 0x100004564, symSize: 0x58 }
  - { offsetInCU: 0x172EE, offset: 0x172EE, size: 0x8, addend: 0x0, symName: __ZSt4moveIR4EdgeEONSt16remove_referenceIT_E4typeEOS3_, symObjAddr: 0x924, symBinAddr: 0x1000045BC, symSize: 0x14 }
  - { offsetInCU: 0x173C4, offset: 0x173C4, size: 0x8, addend: 0x0, symName: __ZNSt15__new_allocatorI4EdgeED2Ev, symObjAddr: 0x8B8, symBinAddr: 0x100004550, symSize: 0x14 }
  - { offsetInCU: 0x173CC, offset: 0x173CC, size: 0x8, addend: 0x0, symName: __ZNSt12_Vector_baseI4EdgeSaIS0_EE13_M_deallocateEPS0_m, symObjAddr: 0x8CC, symBinAddr: 0x100004564, symSize: 0x58 }
  - { offsetInCU: 0x17422, offset: 0x17422, size: 0x8, addend: 0x0, symName: __ZNSt12_Vector_baseI4EdgeSaIS0_EE17_Vector_impl_dataC2Ev, symObjAddr: 0x88C, symBinAddr: 0x100004524, symSize: 0x2C }
  - { offsetInCU: 0x1742A, offset: 0x1742A, size: 0x8, addend: 0x0, symName: __ZNSt15__new_allocatorI4EdgeED2Ev, symObjAddr: 0x8B8, symBinAddr: 0x100004550, symSize: 0x14 }
  - { offsetInCU: 0x1745E, offset: 0x1745E, size: 0x8, addend: 0x0, symName: __ZSt3maxIxERKT_S2_S2_, symObjAddr: 0x854, symBinAddr: 0x1000044EC, symSize: 0x38 }
  - { offsetInCU: 0x17466, offset: 0x17466, size: 0x8, addend: 0x0, symName: __ZNSt12_Vector_baseI4EdgeSaIS0_EE17_Vector_impl_dataC2Ev, symObjAddr: 0x88C, symBinAddr: 0x100004524, symSize: 0x2C }
  - { offsetInCU: 0x1749A, offset: 0x1749A, size: 0x8, addend: 0x0, symName: __ZNK9__gnu_cxx17__normal_iteratorIP4EdgeSt6vectorIS1_SaIS1_EEEdeEv, symObjAddr: 0x83C, symBinAddr: 0x1000044D4, symSize: 0x18 }
  - { offsetInCU: 0x174A2, offset: 0x174A2, size: 0x8, addend: 0x0, symName: __ZSt3maxIxERKT_S2_S2_, symObjAddr: 0x854, symBinAddr: 0x1000044EC, symSize: 0x38 }
  - { offsetInCU: 0x174C9, offset: 0x174C9, size: 0x8, addend: 0x0, symName: __ZN9__gnu_cxx17__normal_iteratorIP4EdgeSt6vectorIS1_SaIS1_EEEppEv, symObjAddr: 0x814, symBinAddr: 0x1000044AC, symSize: 0x28 }
  - { offsetInCU: 0x174D1, offset: 0x174D1, size: 0x8, addend: 0x0, symName: __ZNK9__gnu_cxx17__normal_iteratorIP4EdgeSt6vectorIS1_SaIS1_EEEdeEv, symObjAddr: 0x83C, symBinAddr: 0x1000044D4, symSize: 0x18 }
  - { offsetInCU: 0x17575, offset: 0x17575, size: 0x8, addend: 0x0, symName: __ZN9__gnu_cxxneIP4EdgeSt6vectorIS1_SaIS1_EEEEbRKNS_17__normal_iteratorIT_T0_EESB_, symObjAddr: 0x7D0, symBinAddr: 0x100004468, symSize: 0x44 }
  - { offsetInCU: 0x1757D, offset: 0x1757D, size: 0x8, addend: 0x0, symName: __ZN9__gnu_cxx17__normal_iteratorIP4EdgeSt6vectorIS1_SaIS1_EEEppEv, symObjAddr: 0x814, symBinAddr: 0x1000044AC, symSize: 0x28 }
  - { offsetInCU: 0x175C2, offset: 0x175C2, size: 0x8, addend: 0x0, symName: __ZSt4sortIN9__gnu_cxx17__normal_iteratorIP4EdgeSt6vectorIS2_SaIS2_EEEEZ4mainEUlS2_S2_E_EvT_S9_T0_, symObjAddr: 0x790, symBinAddr: 0x100004428, symSize: 0x40 }
  - { offsetInCU: 0x175CA, offset: 0x175CA, size: 0x8, addend: 0x0, symName: __ZN9__gnu_cxxneIP4EdgeSt6vectorIS1_SaIS1_EEEEbRKNS_17__normal_iteratorIT_T0_EESB_, symObjAddr: 0x7D0, symBinAddr: 0x100004468, symSize: 0x44 }
  - { offsetInCU: 0x175D9, offset: 0x175D9, size: 0x8, addend: 0x0, symName: __ZNSt6vectorI4EdgeSaIS0_EE3endEv, symObjAddr: 0x768, symBinAddr: 0x100004400, symSize: 0x28 }
  - { offsetInCU: 0x175E1, offset: 0x175E1, size: 0x8, addend: 0x0, symName: __ZSt4sortIN9__gnu_cxx17__normal_iteratorIP4EdgeSt6vectorIS2_SaIS2_EEEEZ4mainEUlS2_S2_E_EvT_S9_T0_, symObjAddr: 0x790, symBinAddr: 0x100004428, symSize: 0x40 }
  - { offsetInCU: 0x17608, offset: 0x17608, size: 0x8, addend: 0x0, symName: __ZNSt6vectorI4EdgeSaIS0_EE5beginEv, symObjAddr: 0x744, symBinAddr: 0x1000043DC, symSize: 0x24 }
  - { offsetInCU: 0x17610, offset: 0x17610, size: 0x8, addend: 0x0, symName: __ZNSt6vectorI4EdgeSaIS0_EE3endEv, symObjAddr: 0x768, symBinAddr: 0x100004400, symSize: 0x28 }
  - { offsetInCU: 0x17637, offset: 0x17637, size: 0x8, addend: 0x0, symName: __ZNSt6vectorI4EdgeSaIS0_EE9push_backEOS0_, symObjAddr: 0x714, symBinAddr: 0x1000043AC, symSize: 0x30 }
  - { offsetInCU: 0x1763F, offset: 0x1763F, size: 0x8, addend: 0x0, symName: __ZNSt6vectorI4EdgeSaIS0_EE5beginEv, symObjAddr: 0x744, symBinAddr: 0x1000043DC, symSize: 0x24 }
  - { offsetInCU: 0x176C7, offset: 0x176C7, size: 0x8, addend: 0x0, symName: __ZNSt12_Vector_baseI4EdgeSaIS0_EED2Ev, symObjAddr: 0x6B8, symBinAddr: 0x100004350, symSize: 0x5C }
  - { offsetInCU: 0x176CF, offset: 0x176CF, size: 0x8, addend: 0x0, symName: __ZNSt6vectorI4EdgeSaIS0_EE9push_backEOS0_, symObjAddr: 0x714, symBinAddr: 0x1000043AC, symSize: 0x30 }
  - { offsetInCU: 0x17743, offset: 0x17743, size: 0x8, addend: 0x0, symName: __ZNSt12_Vector_baseI4EdgeSaIS0_EE12_Vector_implC1Ev, symObjAddr: 0x680, symBinAddr: 0x100004318, symSize: 0x38 }
  - { offsetInCU: 0x1774B, offset: 0x1774B, size: 0x8, addend: 0x0, symName: __ZNSt12_Vector_baseI4EdgeSaIS0_EED2Ev, symObjAddr: 0x6B8, symBinAddr: 0x100004350, symSize: 0x5C }
  - { offsetInCU: 0x177BB, offset: 0x177BB, size: 0x8, addend: 0x0, symName: __ZSt3maxImERKT_S2_S2_, symObjAddr: 0x648, symBinAddr: 0x1000042E0, symSize: 0x38 }
  - { offsetInCU: 0x177C3, offset: 0x177C3, size: 0x8, addend: 0x0, symName: __ZNSt12_Vector_baseI4EdgeSaIS0_EE12_Vector_implC1Ev, symObjAddr: 0x680, symBinAddr: 0x100004318, symSize: 0x38 }
  - { offsetInCU: 0x177F3, offset: 0x177F3, size: 0x8, addend: 0x0, symName: _main, symObjAddr: 0x43C, symBinAddr: 0x1000040D4, symSize: 0x20C }
  - { offsetInCU: 0x177FB, offset: 0x177FB, size: 0x8, addend: 0x0, symName: __ZSt3maxImERKT_S2_S2_, symObjAddr: 0x648, symBinAddr: 0x1000042E0, symSize: 0x38 }
  - { offsetInCU: 0x178B2, offset: 0x178B2, size: 0x8, addend: 0x0, symName: __ZZ4mainENKUl4EdgeS_E_clES_S_, symObjAddr: 0x410, symBinAddr: 0x1000040A8, symSize: 0x2C }
  - { offsetInCU: 0x178BA, offset: 0x178BA, size: 0x8, addend: 0x0, symName: _main, symObjAddr: 0x43C, symBinAddr: 0x1000040D4, symSize: 0x20C }
  - { offsetInCU: 0x17A60, offset: 0x17A60, size: 0x8, addend: 0x0, symName: __Z8unionSetxx, symObjAddr: 0x3B0, symBinAddr: 0x100004048, symSize: 0x60 }
  - { offsetInCU: 0x17A68, offset: 0x17A68, size: 0x8, addend: 0x0, symName: __ZZ4mainENKUl4EdgeS_E_clES_S_, symObjAddr: 0x410, symBinAddr: 0x1000040A8, symSize: 0x2C }
  - { offsetInCU: 0x17AAE, offset: 0x17AAE, size: 0x8, addend: 0x0, symName: __Z7findSetx, symObjAddr: 0x340, symBinAddr: 0x100003FD8, symSize: 0x70 }
  - { offsetInCU: 0x17AB6, offset: 0x17AB6, size: 0x8, addend: 0x0, symName: __Z8unionSetxx, symObjAddr: 0x3B0, symBinAddr: 0x100004048, symSize: 0x60 }
  - { offsetInCU: 0x17B0C, offset: 0x17B0C, size: 0x8, addend: 0x0, symName: __ZNSt6vectorI4EdgeSaIS0_EEC1Ev, symObjAddr: 0x320, symBinAddr: 0x100003FB8, symSize: 0x20 }
  - { offsetInCU: 0x17B14, offset: 0x17B14, size: 0x8, addend: 0x0, symName: __Z7findSetx, symObjAddr: 0x340, symBinAddr: 0x100003FD8, symSize: 0x70 }
  - { offsetInCU: 0x17B5A, offset: 0x17B5A, size: 0x8, addend: 0x0, symName: __ZNSt12_Vector_baseI4EdgeSaIS0_EEC2Ev, symObjAddr: 0x300, symBinAddr: 0x100003F98, symSize: 0x20 }
  - { offsetInCU: 0x17B62, offset: 0x17B62, size: 0x8, addend: 0x0, symName: __ZNSt6vectorI4EdgeSaIS0_EEC1Ev, symObjAddr: 0x320, symBinAddr: 0x100003FB8, symSize: 0x20 }
  - { offsetInCU: 0x17BC1, offset: 0x17BC1, size: 0x8, addend: 0x0, symName: __ZNSt12_Vector_baseI4EdgeSaIS0_EE12_Vector_implD1Ev, symObjAddr: 0x2D4, symBinAddr: 0x100003F6C, symSize: 0x2C }
  - { offsetInCU: 0x17BC9, offset: 0x17BC9, size: 0x8, addend: 0x0, symName: __ZNSt12_Vector_baseI4EdgeSaIS0_EEC2Ev, symObjAddr: 0x300, symBinAddr: 0x100003F98, symSize: 0x20 }
  - { offsetInCU: 0x17BF4, offset: 0x17BF4, size: 0x8, addend: 0x0, symName: __Z6_printv, symObjAddr: 0x2AC, symBinAddr: 0x100003F44, symSize: 0x28 }
  - { offsetInCU: 0x17BFC, offset: 0x17BFC, size: 0x8, addend: 0x0, symName: __ZNSt12_Vector_baseI4EdgeSaIS0_EE12_Vector_implD1Ev, symObjAddr: 0x2D4, symBinAddr: 0x100003F6C, symSize: 0x2C }
  - { offsetInCU: 0x17C13, offset: 0x17C13, size: 0x8, addend: 0x0, symName: __Z7__printb, symObjAddr: 0x260, symBinAddr: 0x100003EF8, symSize: 0x4C }
  - { offsetInCU: 0x17C1B, offset: 0x17C1B, size: 0x8, addend: 0x0, symName: __Z6_printv, symObjAddr: 0x2AC, symBinAddr: 0x100003F44, symSize: 0x28 }
  - { offsetInCU: 0x17C7D, offset: 0x17C7D, size: 0x8, addend: 0x0, symName: __Z7__printRKNSt7__cxx1112basic_stringIcSt11char_traitsIcESaIcEEE, symObjAddr: 0x228, symBinAddr: 0x100003EC0, symSize: 0x38 }
  - { offsetInCU: 0x17C85, offset: 0x17C85, size: 0x8, addend: 0x0, symName: __Z7__printb, symObjAddr: 0x260, symBinAddr: 0x100003EF8, symSize: 0x4C }
  - { offsetInCU: 0x17C7F, offset: 0x17C7F, size: 0x8, addend: 0x0, symName: __Z7__printPKc, symObjAddr: 0x1F0, symBinAddr: 0x100003E88, symSize: 0x38 }
  - { offsetInCU: 0x17C87, offset: 0x17C87, size: 0x8, addend: 0x0, symName: __Z7__printRKNSt7__cxx1112basic_stringIcSt11char_traitsIcESaIcEEE, symObjAddr: 0x228, symBinAddr: 0x100003EC0, symSize: 0x38 }
  - { offsetInCU: 0x17CB2, offset: 0x17CB2, size: 0x8, addend: 0x0, symName: __Z7__printc, symObjAddr: 0x1B8, symBinAddr: 0x100003E50, symSize: 0x38 }
  - { offsetInCU: 0x17CBA, offset: 0x17CBA, size: 0x8, addend: 0x0, symName: __Z7__printPKc, symObjAddr: 0x1F0, symBinAddr: 0x100003E88, symSize: 0x38 }
  - { offsetInCU: 0x17CE7, offset: 0x17CE7, size: 0x8, addend: 0x0, symName: __Z7__printe, symObjAddr: 0x190, symBinAddr: 0x100003E28, symSize: 0x28 }
  - { offsetInCU: 0x17CEF, offset: 0x17CEF, size: 0x8, addend: 0x0, symName: __Z7__printc, symObjAddr: 0x1B8, symBinAddr: 0x100003E50, symSize: 0x38 }
  - { offsetInCU: 0x17D1C, offset: 0x17D1C, size: 0x8, addend: 0x0, symName: __Z7__printd, symObjAddr: 0x168, symBinAddr: 0x100003E00, symSize: 0x28 }
  - { offsetInCU: 0x17D24, offset: 0x17D24, size: 0x8, addend: 0x0, symName: __Z7__printe, symObjAddr: 0x190, symBinAddr: 0x100003E28, symSize: 0x28 }
  - { offsetInCU: 0x17D51, offset: 0x17D51, size: 0x8, addend: 0x0, symName: __Z7__printf, symObjAddr: 0x140, symBinAddr: 0x100003DD8, symSize: 0x28 }
  - { offsetInCU: 0x17D59, offset: 0x17D59, size: 0x8, addend: 0x0, symName: __Z7__printd, symObjAddr: 0x168, symBinAddr: 0x100003E00, symSize: 0x28 }
  - { offsetInCU: 0x17D86, offset: 0x17D86, size: 0x8, addend: 0x0, symName: __Z7__printy, symObjAddr: 0x118, symBinAddr: 0x100003DB0, symSize: 0x28 }
  - { offsetInCU: 0x17D8E, offset: 0x17D8E, size: 0x8, addend: 0x0, symName: __Z7__printf, symObjAddr: 0x140, symBinAddr: 0x100003DD8, symSize: 0x28 }
  - { offsetInCU: 0x17DBB, offset: 0x17DBB, size: 0x8, addend: 0x0, symName: __Z7__printm, symObjAddr: 0xF0, symBinAddr: 0x100003D88, symSize: 0x28 }
  - { offsetInCU: 0x17DC3, offset: 0x17DC3, size: 0x8, addend: 0x0, symName: __Z7__printy, symObjAddr: 0x118, symBinAddr: 0x100003DB0, symSize: 0x28 }
  - { offsetInCU: 0x17DF0, offset: 0x17DF0, size: 0x8, addend: 0x0, symName: __Z7__printj, symObjAddr: 0xC8, symBinAddr: 0x100003D60, symSize: 0x28 }
  - { offsetInCU: 0x17DF8, offset: 0x17DF8, size: 0x8, addend: 0x0, symName: __Z7__printm, symObjAddr: 0xF0, symBinAddr: 0x100003D88, symSize: 0x28 }
  - { offsetInCU: 0x17E25, offset: 0x17E25, size: 0x8, addend: 0x0, symName: __Z7__printx, symObjAddr: 0xA0, symBinAddr: 0x100003D38, symSize: 0x28 }
  - { offsetInCU: 0x17E2D, offset: 0x17E2D, size: 0x8, addend: 0x0, symName: __Z7__printj, symObjAddr: 0xC8, symBinAddr: 0x100003D60, symSize: 0x28 }
  - { offsetInCU: 0x17E5A, offset: 0x17E5A, size: 0x8, addend: 0x0, symName: __Z7__printl, symObjAddr: 0x78, symBinAddr: 0x100003D10, symSize: 0x28 }
  - { offsetInCU: 0x17E62, offset: 0x17E62, size: 0x8, addend: 0x0, symName: __Z7__printx, symObjAddr: 0xA0, symBinAddr: 0x100003D38, symSize: 0x28 }
  - { offsetInCU: 0x17E8F, offset: 0x17E8F, size: 0x8, addend: 0x0, symName: __Z7__printi, symObjAddr: 0x50, symBinAddr: 0x100003CE8, symSize: 0x28 }
  - { offsetInCU: 0x17E97, offset: 0x17E97, size: 0x8, addend: 0x0, symName: __Z7__printl, symObjAddr: 0x78, symBinAddr: 0x100003D10, symSize: 0x28 }
  - { offsetInCU: 0x17EE5, offset: 0x17EE5, size: 0x8, addend: 0x0, symName: __ZSt3minImERKT_S2_S2_, symObjAddr: 0x18, symBinAddr: 0x100003CB0, symSize: 0x38 }
  - { offsetInCU: 0x17EED, offset: 0x17EED, size: 0x8, addend: 0x0, symName: __Z7__printi, symObjAddr: 0x50, symBinAddr: 0x100003CE8, symSize: 0x28 }
  - { offsetInCU: 0x17F23, offset: 0x17F23, size: 0x8, addend: 0x0, symName: __ZnwmPv, symObjAddr: 0x0, symBinAddr: 0x100003C98, symSize: 0x18 }
  - { offsetInCU: 0x17F2B, offset: 0x17F2B, size: 0x8, addend: 0x0, symName: __ZSt3minImERKT_S2_S2_, symObjAddr: 0x18, symBinAddr: 0x100003CB0, symSize: 0x38 }
...
